
addi.elf:     file format elf32-littleriscv


Disassembly of section .text.init:

00000000 <_start>:
   0:	0040006f          	j	4 <reset_vector>

00000004 <reset_vector>:
   4:	00000093          	li	ra,0
   8:	00000113          	li	sp,0
   c:	00000193          	li	gp,0
  10:	00000213          	li	tp,0
  14:	00000293          	li	t0,0
  18:	00000313          	li	t1,0
  1c:	00000393          	li	t2,0
  20:	00000413          	li	s0,0
  24:	00000493          	li	s1,0
  28:	00000513          	li	a0,0
  2c:	00000593          	li	a1,0
  30:	00000613          	li	a2,0
  34:	00000693          	li	a3,0
  38:	00000713          	li	a4,0
  3c:	00000793          	li	a5,0
  40:	00000813          	li	a6,0
  44:	00000893          	li	a7,0
  48:	00000913          	li	s2,0
  4c:	00000993          	li	s3,0
  50:	00000a13          	li	s4,0
  54:	00000a93          	li	s5,0
  58:	00000b13          	li	s6,0
  5c:	00000b93          	li	s7,0
  60:	00000c13          	li	s8,0
  64:	00000c93          	li	s9,0
  68:	00000d13          	li	s10,0
  6c:	00000d93          	li	s11,0
  70:	00000e13          	li	t3,0
  74:	00000e93          	li	t4,0
  78:	00000f13          	li	t5,0
  7c:	00000f93          	li	t6,0
  80:	00000193          	li	gp,0
  84:	00100513          	li	a0,1
  88:	01f51513          	sll	a0,a0,0x1f
  8c:	02054263          	bltz	a0,b0 <reset_vector+0xac>
  90:	0ff0000f          	fence
  94:	04f00513          	li	a0,79
  98:	fea00fa3          	sb	a0,-1(zero) # ffffffff <_end+0xffffdfff>
  9c:	06b00513          	li	a0,107
  a0:	fea00fa3          	sb	a0,-1(zero) # ffffffff <_end+0xffffdfff>
  a4:	00a00513          	li	a0,10
  a8:	fea00fa3          	sb	a0,-1(zero) # ffffffff <_end+0xffffdfff>
  ac:	00100193          	li	gp,1
  b0:	30005073          	csrw	mstatus,0
  b4:	00000297          	auipc	t0,0x0
  b8:	01428293          	add	t0,t0,20 # c8 <test_2>
  bc:	34129073          	csrw	mepc,t0
  c0:	f1402573          	csrr	a0,mhartid
  c4:	30200073          	mret

000000c8 <test_2>:
  c8:	00200193          	li	gp,2
  cc:	00000093          	li	ra,0
  d0:	00008713          	mv	a4,ra
  d4:	00000393          	li	t2,0
  d8:	26771c63          	bne	a4,t2,350 <fail>

000000dc <test_3>:
  dc:	00300193          	li	gp,3
  e0:	00100093          	li	ra,1
  e4:	00108713          	add	a4,ra,1
  e8:	00200393          	li	t2,2
  ec:	26771263          	bne	a4,t2,350 <fail>

000000f0 <test_4>:
  f0:	00400193          	li	gp,4
  f4:	00300093          	li	ra,3
  f8:	00708713          	add	a4,ra,7
  fc:	00a00393          	li	t2,10
 100:	24771863          	bne	a4,t2,350 <fail>

00000104 <test_5>:
 104:	00500193          	li	gp,5
 108:	00000093          	li	ra,0
 10c:	80008713          	add	a4,ra,-2048
 110:	80000393          	li	t2,-2048
 114:	22771e63          	bne	a4,t2,350 <fail>

00000118 <test_6>:
 118:	00600193          	li	gp,6
 11c:	800000b7          	lui	ra,0x80000
 120:	00008713          	mv	a4,ra
 124:	800003b7          	lui	t2,0x80000
 128:	22771463          	bne	a4,t2,350 <fail>

0000012c <test_7>:
 12c:	00700193          	li	gp,7
 130:	800000b7          	lui	ra,0x80000
 134:	80008713          	add	a4,ra,-2048 # 7ffff800 <_end+0x7fffd800>
 138:	800003b7          	lui	t2,0x80000
 13c:	80038393          	add	t2,t2,-2048 # 7ffff800 <_end+0x7fffd800>
 140:	20771863          	bne	a4,t2,350 <fail>

00000144 <test_8>:
 144:	00800193          	li	gp,8
 148:	00000093          	li	ra,0
 14c:	7ff08713          	add	a4,ra,2047
 150:	7ff00393          	li	t2,2047
 154:	1e771e63          	bne	a4,t2,350 <fail>

00000158 <test_9>:
 158:	00900193          	li	gp,9
 15c:	800000b7          	lui	ra,0x80000
 160:	fff08093          	add	ra,ra,-1 # 7fffffff <_end+0x7fffdfff>
 164:	00008713          	mv	a4,ra
 168:	800003b7          	lui	t2,0x80000
 16c:	fff38393          	add	t2,t2,-1 # 7fffffff <_end+0x7fffdfff>
 170:	1e771063          	bne	a4,t2,350 <fail>

00000174 <test_10>:
 174:	00a00193          	li	gp,10
 178:	800000b7          	lui	ra,0x80000
 17c:	fff08093          	add	ra,ra,-1 # 7fffffff <_end+0x7fffdfff>
 180:	7ff08713          	add	a4,ra,2047
 184:	800003b7          	lui	t2,0x80000
 188:	7fe38393          	add	t2,t2,2046 # 800007fe <_end+0x7fffe7fe>
 18c:	1c771263          	bne	a4,t2,350 <fail>

00000190 <test_11>:
 190:	00b00193          	li	gp,11
 194:	800000b7          	lui	ra,0x80000
 198:	7ff08713          	add	a4,ra,2047 # 800007ff <_end+0x7fffe7ff>
 19c:	800003b7          	lui	t2,0x80000
 1a0:	7ff38393          	add	t2,t2,2047 # 800007ff <_end+0x7fffe7ff>
 1a4:	1a771663          	bne	a4,t2,350 <fail>

000001a8 <test_12>:
 1a8:	00c00193          	li	gp,12
 1ac:	800000b7          	lui	ra,0x80000
 1b0:	fff08093          	add	ra,ra,-1 # 7fffffff <_end+0x7fffdfff>
 1b4:	80008713          	add	a4,ra,-2048
 1b8:	7ffff3b7          	lui	t2,0x7ffff
 1bc:	7ff38393          	add	t2,t2,2047 # 7ffff7ff <_end+0x7fffd7ff>
 1c0:	18771863          	bne	a4,t2,350 <fail>

000001c4 <test_13>:
 1c4:	00d00193          	li	gp,13
 1c8:	00000093          	li	ra,0
 1cc:	fff08713          	add	a4,ra,-1
 1d0:	fff00393          	li	t2,-1
 1d4:	16771e63          	bne	a4,t2,350 <fail>

000001d8 <test_14>:
 1d8:	00e00193          	li	gp,14
 1dc:	fff00093          	li	ra,-1
 1e0:	00108713          	add	a4,ra,1
 1e4:	00000393          	li	t2,0
 1e8:	16771463          	bne	a4,t2,350 <fail>

000001ec <test_15>:
 1ec:	00f00193          	li	gp,15
 1f0:	fff00093          	li	ra,-1
 1f4:	fff08713          	add	a4,ra,-1
 1f8:	ffe00393          	li	t2,-2
 1fc:	14771a63          	bne	a4,t2,350 <fail>

00000200 <test_16>:
 200:	01000193          	li	gp,16
 204:	800000b7          	lui	ra,0x80000
 208:	fff08093          	add	ra,ra,-1 # 7fffffff <_end+0x7fffdfff>
 20c:	00108713          	add	a4,ra,1
 210:	800003b7          	lui	t2,0x80000
 214:	12771e63          	bne	a4,t2,350 <fail>

00000218 <test_17>:
 218:	01100193          	li	gp,17
 21c:	00d00093          	li	ra,13
 220:	00b08093          	add	ra,ra,11
 224:	01800393          	li	t2,24
 228:	12709463          	bne	ra,t2,350 <fail>

0000022c <test_18>:
 22c:	01200193          	li	gp,18
 230:	00000213          	li	tp,0
 234:	00d00093          	li	ra,13
 238:	00b08713          	add	a4,ra,11
 23c:	00070313          	mv	t1,a4
 240:	00120213          	add	tp,tp,1 # 1 <_start+0x1>
 244:	00200293          	li	t0,2
 248:	fe5216e3          	bne	tp,t0,234 <test_18+0x8>
 24c:	01800393          	li	t2,24
 250:	10731063          	bne	t1,t2,350 <fail>

00000254 <test_19>:
 254:	01300193          	li	gp,19
 258:	00000213          	li	tp,0
 25c:	00d00093          	li	ra,13
 260:	00a08713          	add	a4,ra,10
 264:	00000013          	nop
 268:	00070313          	mv	t1,a4
 26c:	00120213          	add	tp,tp,1 # 1 <_start+0x1>
 270:	00200293          	li	t0,2
 274:	fe5214e3          	bne	tp,t0,25c <test_19+0x8>
 278:	01700393          	li	t2,23
 27c:	0c731a63          	bne	t1,t2,350 <fail>

00000280 <test_20>:
 280:	01400193          	li	gp,20
 284:	00000213          	li	tp,0
 288:	00d00093          	li	ra,13
 28c:	00908713          	add	a4,ra,9
 290:	00000013          	nop
 294:	00000013          	nop
 298:	00070313          	mv	t1,a4
 29c:	00120213          	add	tp,tp,1 # 1 <_start+0x1>
 2a0:	00200293          	li	t0,2
 2a4:	fe5212e3          	bne	tp,t0,288 <test_20+0x8>
 2a8:	01600393          	li	t2,22
 2ac:	0a731263          	bne	t1,t2,350 <fail>

000002b0 <test_21>:
 2b0:	01500193          	li	gp,21
 2b4:	00000213          	li	tp,0
 2b8:	00d00093          	li	ra,13
 2bc:	00b08713          	add	a4,ra,11
 2c0:	00120213          	add	tp,tp,1 # 1 <_start+0x1>
 2c4:	00200293          	li	t0,2
 2c8:	fe5218e3          	bne	tp,t0,2b8 <test_21+0x8>
 2cc:	01800393          	li	t2,24
 2d0:	08771063          	bne	a4,t2,350 <fail>

000002d4 <test_22>:
 2d4:	01600193          	li	gp,22
 2d8:	00000213          	li	tp,0
 2dc:	00d00093          	li	ra,13
 2e0:	00000013          	nop
 2e4:	00a08713          	add	a4,ra,10
 2e8:	00120213          	add	tp,tp,1 # 1 <_start+0x1>
 2ec:	00200293          	li	t0,2
 2f0:	fe5216e3          	bne	tp,t0,2dc <test_22+0x8>
 2f4:	01700393          	li	t2,23
 2f8:	04771c63          	bne	a4,t2,350 <fail>

000002fc <test_23>:
 2fc:	01700193          	li	gp,23
 300:	00000213          	li	tp,0
 304:	00d00093          	li	ra,13
 308:	00000013          	nop
 30c:	00000013          	nop
 310:	00908713          	add	a4,ra,9
 314:	00120213          	add	tp,tp,1 # 1 <_start+0x1>
 318:	00200293          	li	t0,2
 31c:	fe5214e3          	bne	tp,t0,304 <test_23+0x8>
 320:	01600393          	li	t2,22
 324:	02771663          	bne	a4,t2,350 <fail>

00000328 <test_24>:
 328:	01800193          	li	gp,24
 32c:	02000093          	li	ra,32
 330:	02000393          	li	t2,32
 334:	00709e63          	bne	ra,t2,350 <fail>

00000338 <test_25>:
 338:	01900193          	li	gp,25
 33c:	02100093          	li	ra,33
 340:	03208013          	add	zero,ra,50
 344:	00000393          	li	t2,0
 348:	00701463          	bne	zero,t2,350 <fail>
 34c:	02301863          	bne	zero,gp,37c <pass>

00000350 <fail>:
 350:	0ff0000f          	fence
 354:	04e00513          	li	a0,78
 358:	fea00fa3          	sb	a0,-1(zero) # ffffffff <_end+0xffffdfff>
 35c:	06f00513          	li	a0,111
 360:	fea00fa3          	sb	a0,-1(zero) # ffffffff <_end+0xffffdfff>
 364:	00a00513          	li	a0,10
 368:	fea00fa3          	sb	a0,-1(zero) # ffffffff <_end+0xffffdfff>
 36c:	00018063          	beqz	gp,36c <fail+0x1c>
 370:	00119193          	sll	gp,gp,0x1
 374:	0011e193          	or	gp,gp,1
 378:	c0001073          	unimp

0000037c <pass>:
 37c:	0ff0000f          	fence
 380:	04f00513          	li	a0,79
 384:	fea00fa3          	sb	a0,-1(zero) # ffffffff <_end+0xffffdfff>
 388:	06b00513          	li	a0,107
 38c:	fea00fa3          	sb	a0,-1(zero) # ffffffff <_end+0xffffdfff>
 390:	00a00513          	li	a0,10
 394:	fea00fa3          	sb	a0,-1(zero) # ffffffff <_end+0xffffdfff>
 398:	00100193          	li	gp,1
 39c:	c0001073          	unimp
 3a0:	c0001073          	unimp
	...
