
and.elf:     file format elf32-littleriscv


Disassembly of section .text.init:

00000000 <_start>:
   0:	0040006f          	j	4 <reset_vector>

00000004 <reset_vector>:
   4:	00000093          	li	ra,0
   8:	00000113          	li	sp,0
   c:	00000193          	li	gp,0
  10:	00000213          	li	tp,0
  14:	00000293          	li	t0,0
  18:	00000313          	li	t1,0
  1c:	00000393          	li	t2,0
  20:	00000413          	li	s0,0
  24:	00000493          	li	s1,0
  28:	00000513          	li	a0,0
  2c:	00000593          	li	a1,0
  30:	00000613          	li	a2,0
  34:	00000693          	li	a3,0
  38:	00000713          	li	a4,0
  3c:	00000793          	li	a5,0
  40:	00000813          	li	a6,0
  44:	00000893          	li	a7,0
  48:	00000913          	li	s2,0
  4c:	00000993          	li	s3,0
  50:	00000a13          	li	s4,0
  54:	00000a93          	li	s5,0
  58:	00000b13          	li	s6,0
  5c:	00000b93          	li	s7,0
  60:	00000c13          	li	s8,0
  64:	00000c93          	li	s9,0
  68:	00000d13          	li	s10,0
  6c:	00000d93          	li	s11,0
  70:	00000e13          	li	t3,0
  74:	00000e93          	li	t4,0
  78:	00000f13          	li	t5,0
  7c:	00000f93          	li	t6,0
  80:	00000193          	li	gp,0
  84:	00100513          	li	a0,1
  88:	01f51513          	sll	a0,a0,0x1f
  8c:	02054263          	bltz	a0,b0 <reset_vector+0xac>
  90:	0ff0000f          	fence
  94:	04f00513          	li	a0,79
  98:	fea00fa3          	sb	a0,-1(zero) # ffffffff <_end+0xffffdfff>
  9c:	06b00513          	li	a0,107
  a0:	fea00fa3          	sb	a0,-1(zero) # ffffffff <_end+0xffffdfff>
  a4:	00a00513          	li	a0,10
  a8:	fea00fa3          	sb	a0,-1(zero) # ffffffff <_end+0xffffdfff>
  ac:	00100193          	li	gp,1
  b0:	30005073          	csrw	mstatus,0
  b4:	00000297          	auipc	t0,0x0
  b8:	01428293          	add	t0,t0,20 # c8 <test_2>
  bc:	34129073          	csrw	mepc,t0
  c0:	f1402573          	csrr	a0,mhartid
  c4:	30200073          	mret

000000c8 <test_2>:
  c8:	00200193          	li	gp,2
  cc:	ff0100b7          	lui	ra,0xff010
  d0:	f0008093          	add	ra,ra,-256 # ff00ff00 <_end+0xff00df00>
  d4:	0f0f1137          	lui	sp,0xf0f1
  d8:	f0f10113          	add	sp,sp,-241 # f0f0f0f <_end+0xf0eef0f>
  dc:	0020f733          	and	a4,ra,sp
  e0:	0f0013b7          	lui	t2,0xf001
  e4:	f0038393          	add	t2,t2,-256 # f000f00 <_end+0xeffef00>
  e8:	48771c63          	bne	a4,t2,580 <fail>

000000ec <test_3>:
  ec:	00300193          	li	gp,3
  f0:	0ff010b7          	lui	ra,0xff01
  f4:	ff008093          	add	ra,ra,-16 # ff00ff0 <_end+0xfefeff0>
  f8:	f0f0f137          	lui	sp,0xf0f0f
  fc:	0f010113          	add	sp,sp,240 # f0f0f0f0 <_end+0xf0f0d0f0>
 100:	0020f733          	and	a4,ra,sp
 104:	00f003b7          	lui	t2,0xf00
 108:	0f038393          	add	t2,t2,240 # f000f0 <_end+0xefe0f0>
 10c:	46771a63          	bne	a4,t2,580 <fail>

00000110 <test_4>:
 110:	00400193          	li	gp,4
 114:	00ff00b7          	lui	ra,0xff0
 118:	0ff08093          	add	ra,ra,255 # ff00ff <_end+0xfee0ff>
 11c:	0f0f1137          	lui	sp,0xf0f1
 120:	f0f10113          	add	sp,sp,-241 # f0f0f0f <_end+0xf0eef0f>
 124:	0020f733          	and	a4,ra,sp
 128:	000f03b7          	lui	t2,0xf0
 12c:	00f38393          	add	t2,t2,15 # f000f <_end+0xee00f>
 130:	44771863          	bne	a4,t2,580 <fail>

00000134 <test_5>:
 134:	00500193          	li	gp,5
 138:	f00ff0b7          	lui	ra,0xf00ff
 13c:	00f08093          	add	ra,ra,15 # f00ff00f <_end+0xf00fd00f>
 140:	f0f0f137          	lui	sp,0xf0f0f
 144:	0f010113          	add	sp,sp,240 # f0f0f0f0 <_end+0xf0f0d0f0>
 148:	0020f733          	and	a4,ra,sp
 14c:	f000f3b7          	lui	t2,0xf000f
 150:	42771863          	bne	a4,t2,580 <fail>

00000154 <test_6>:
 154:	00600193          	li	gp,6
 158:	ff0100b7          	lui	ra,0xff010
 15c:	f0008093          	add	ra,ra,-256 # ff00ff00 <_end+0xff00df00>
 160:	0f0f1137          	lui	sp,0xf0f1
 164:	f0f10113          	add	sp,sp,-241 # f0f0f0f <_end+0xf0eef0f>
 168:	0020f0b3          	and	ra,ra,sp
 16c:	0f0013b7          	lui	t2,0xf001
 170:	f0038393          	add	t2,t2,-256 # f000f00 <_end+0xeffef00>
 174:	40709663          	bne	ra,t2,580 <fail>

00000178 <test_7>:
 178:	00700193          	li	gp,7
 17c:	0ff010b7          	lui	ra,0xff01
 180:	ff008093          	add	ra,ra,-16 # ff00ff0 <_end+0xfefeff0>
 184:	f0f0f137          	lui	sp,0xf0f0f
 188:	0f010113          	add	sp,sp,240 # f0f0f0f0 <_end+0xf0f0d0f0>
 18c:	0020f133          	and	sp,ra,sp
 190:	00f003b7          	lui	t2,0xf00
 194:	0f038393          	add	t2,t2,240 # f000f0 <_end+0xefe0f0>
 198:	3e711463          	bne	sp,t2,580 <fail>

0000019c <test_8>:
 19c:	00800193          	li	gp,8
 1a0:	ff0100b7          	lui	ra,0xff010
 1a4:	f0008093          	add	ra,ra,-256 # ff00ff00 <_end+0xff00df00>
 1a8:	0010f0b3          	and	ra,ra,ra
 1ac:	ff0103b7          	lui	t2,0xff010
 1b0:	f0038393          	add	t2,t2,-256 # ff00ff00 <_end+0xff00df00>
 1b4:	3c709663          	bne	ra,t2,580 <fail>

000001b8 <test_9>:
 1b8:	00900193          	li	gp,9
 1bc:	00000213          	li	tp,0
 1c0:	ff0100b7          	lui	ra,0xff010
 1c4:	f0008093          	add	ra,ra,-256 # ff00ff00 <_end+0xff00df00>
 1c8:	0f0f1137          	lui	sp,0xf0f1
 1cc:	f0f10113          	add	sp,sp,-241 # f0f0f0f <_end+0xf0eef0f>
 1d0:	0020f733          	and	a4,ra,sp
 1d4:	00070313          	mv	t1,a4
 1d8:	00120213          	add	tp,tp,1 # 1 <_start+0x1>
 1dc:	00200293          	li	t0,2
 1e0:	fe5210e3          	bne	tp,t0,1c0 <test_9+0x8>
 1e4:	0f0013b7          	lui	t2,0xf001
 1e8:	f0038393          	add	t2,t2,-256 # f000f00 <_end+0xeffef00>
 1ec:	38731a63          	bne	t1,t2,580 <fail>

000001f0 <test_10>:
 1f0:	00a00193          	li	gp,10
 1f4:	00000213          	li	tp,0
 1f8:	0ff010b7          	lui	ra,0xff01
 1fc:	ff008093          	add	ra,ra,-16 # ff00ff0 <_end+0xfefeff0>
 200:	f0f0f137          	lui	sp,0xf0f0f
 204:	0f010113          	add	sp,sp,240 # f0f0f0f0 <_end+0xf0f0d0f0>
 208:	0020f733          	and	a4,ra,sp
 20c:	00000013          	nop
 210:	00070313          	mv	t1,a4
 214:	00120213          	add	tp,tp,1 # 1 <_start+0x1>
 218:	00200293          	li	t0,2
 21c:	fc521ee3          	bne	tp,t0,1f8 <test_10+0x8>
 220:	00f003b7          	lui	t2,0xf00
 224:	0f038393          	add	t2,t2,240 # f000f0 <_end+0xefe0f0>
 228:	34731c63          	bne	t1,t2,580 <fail>

0000022c <test_11>:
 22c:	00b00193          	li	gp,11
 230:	00000213          	li	tp,0
 234:	00ff00b7          	lui	ra,0xff0
 238:	0ff08093          	add	ra,ra,255 # ff00ff <_end+0xfee0ff>
 23c:	0f0f1137          	lui	sp,0xf0f1
 240:	f0f10113          	add	sp,sp,-241 # f0f0f0f <_end+0xf0eef0f>
 244:	0020f733          	and	a4,ra,sp
 248:	00000013          	nop
 24c:	00000013          	nop
 250:	00070313          	mv	t1,a4
 254:	00120213          	add	tp,tp,1 # 1 <_start+0x1>
 258:	00200293          	li	t0,2
 25c:	fc521ce3          	bne	tp,t0,234 <test_11+0x8>
 260:	000f03b7          	lui	t2,0xf0
 264:	00f38393          	add	t2,t2,15 # f000f <_end+0xee00f>
 268:	30731c63          	bne	t1,t2,580 <fail>

0000026c <test_12>:
 26c:	00c00193          	li	gp,12
 270:	00000213          	li	tp,0
 274:	ff0100b7          	lui	ra,0xff010
 278:	f0008093          	add	ra,ra,-256 # ff00ff00 <_end+0xff00df00>
 27c:	0f0f1137          	lui	sp,0xf0f1
 280:	f0f10113          	add	sp,sp,-241 # f0f0f0f <_end+0xf0eef0f>
 284:	0020f733          	and	a4,ra,sp
 288:	00120213          	add	tp,tp,1 # 1 <_start+0x1>
 28c:	00200293          	li	t0,2
 290:	fe5212e3          	bne	tp,t0,274 <test_12+0x8>
 294:	0f0013b7          	lui	t2,0xf001
 298:	f0038393          	add	t2,t2,-256 # f000f00 <_end+0xeffef00>
 29c:	2e771263          	bne	a4,t2,580 <fail>

000002a0 <test_13>:
 2a0:	00d00193          	li	gp,13
 2a4:	00000213          	li	tp,0
 2a8:	0ff010b7          	lui	ra,0xff01
 2ac:	ff008093          	add	ra,ra,-16 # ff00ff0 <_end+0xfefeff0>
 2b0:	f0f0f137          	lui	sp,0xf0f0f
 2b4:	0f010113          	add	sp,sp,240 # f0f0f0f0 <_end+0xf0f0d0f0>
 2b8:	00000013          	nop
 2bc:	0020f733          	and	a4,ra,sp
 2c0:	00120213          	add	tp,tp,1 # 1 <_start+0x1>
 2c4:	00200293          	li	t0,2
 2c8:	fe5210e3          	bne	tp,t0,2a8 <test_13+0x8>
 2cc:	00f003b7          	lui	t2,0xf00
 2d0:	0f038393          	add	t2,t2,240 # f000f0 <_end+0xefe0f0>
 2d4:	2a771663          	bne	a4,t2,580 <fail>

000002d8 <test_14>:
 2d8:	00e00193          	li	gp,14
 2dc:	00000213          	li	tp,0
 2e0:	00ff00b7          	lui	ra,0xff0
 2e4:	0ff08093          	add	ra,ra,255 # ff00ff <_end+0xfee0ff>
 2e8:	0f0f1137          	lui	sp,0xf0f1
 2ec:	f0f10113          	add	sp,sp,-241 # f0f0f0f <_end+0xf0eef0f>
 2f0:	00000013          	nop
 2f4:	00000013          	nop
 2f8:	0020f733          	and	a4,ra,sp
 2fc:	00120213          	add	tp,tp,1 # 1 <_start+0x1>
 300:	00200293          	li	t0,2
 304:	fc521ee3          	bne	tp,t0,2e0 <test_14+0x8>
 308:	000f03b7          	lui	t2,0xf0
 30c:	00f38393          	add	t2,t2,15 # f000f <_end+0xee00f>
 310:	26771863          	bne	a4,t2,580 <fail>

00000314 <test_15>:
 314:	00f00193          	li	gp,15
 318:	00000213          	li	tp,0
 31c:	ff0100b7          	lui	ra,0xff010
 320:	f0008093          	add	ra,ra,-256 # ff00ff00 <_end+0xff00df00>
 324:	00000013          	nop
 328:	0f0f1137          	lui	sp,0xf0f1
 32c:	f0f10113          	add	sp,sp,-241 # f0f0f0f <_end+0xf0eef0f>
 330:	0020f733          	and	a4,ra,sp
 334:	00120213          	add	tp,tp,1 # 1 <_start+0x1>
 338:	00200293          	li	t0,2
 33c:	fe5210e3          	bne	tp,t0,31c <test_15+0x8>
 340:	0f0013b7          	lui	t2,0xf001
 344:	f0038393          	add	t2,t2,-256 # f000f00 <_end+0xeffef00>
 348:	22771c63          	bne	a4,t2,580 <fail>

0000034c <test_16>:
 34c:	01000193          	li	gp,16
 350:	00000213          	li	tp,0
 354:	0ff010b7          	lui	ra,0xff01
 358:	ff008093          	add	ra,ra,-16 # ff00ff0 <_end+0xfefeff0>
 35c:	00000013          	nop
 360:	f0f0f137          	lui	sp,0xf0f0f
 364:	0f010113          	add	sp,sp,240 # f0f0f0f0 <_end+0xf0f0d0f0>
 368:	00000013          	nop
 36c:	0020f733          	and	a4,ra,sp
 370:	00120213          	add	tp,tp,1 # 1 <_start+0x1>
 374:	00200293          	li	t0,2
 378:	fc521ee3          	bne	tp,t0,354 <test_16+0x8>
 37c:	00f003b7          	lui	t2,0xf00
 380:	0f038393          	add	t2,t2,240 # f000f0 <_end+0xefe0f0>
 384:	1e771e63          	bne	a4,t2,580 <fail>

00000388 <test_17>:
 388:	01100193          	li	gp,17
 38c:	00000213          	li	tp,0
 390:	00ff00b7          	lui	ra,0xff0
 394:	0ff08093          	add	ra,ra,255 # ff00ff <_end+0xfee0ff>
 398:	00000013          	nop
 39c:	00000013          	nop
 3a0:	0f0f1137          	lui	sp,0xf0f1
 3a4:	f0f10113          	add	sp,sp,-241 # f0f0f0f <_end+0xf0eef0f>
 3a8:	0020f733          	and	a4,ra,sp
 3ac:	00120213          	add	tp,tp,1 # 1 <_start+0x1>
 3b0:	00200293          	li	t0,2
 3b4:	fc521ee3          	bne	tp,t0,390 <test_17+0x8>
 3b8:	000f03b7          	lui	t2,0xf0
 3bc:	00f38393          	add	t2,t2,15 # f000f <_end+0xee00f>
 3c0:	1c771063          	bne	a4,t2,580 <fail>

000003c4 <test_18>:
 3c4:	01200193          	li	gp,18
 3c8:	00000213          	li	tp,0
 3cc:	0f0f1137          	lui	sp,0xf0f1
 3d0:	f0f10113          	add	sp,sp,-241 # f0f0f0f <_end+0xf0eef0f>
 3d4:	ff0100b7          	lui	ra,0xff010
 3d8:	f0008093          	add	ra,ra,-256 # ff00ff00 <_end+0xff00df00>
 3dc:	0020f733          	and	a4,ra,sp
 3e0:	00120213          	add	tp,tp,1 # 1 <_start+0x1>
 3e4:	00200293          	li	t0,2
 3e8:	fe5212e3          	bne	tp,t0,3cc <test_18+0x8>
 3ec:	0f0013b7          	lui	t2,0xf001
 3f0:	f0038393          	add	t2,t2,-256 # f000f00 <_end+0xeffef00>
 3f4:	18771663          	bne	a4,t2,580 <fail>

000003f8 <test_19>:
 3f8:	01300193          	li	gp,19
 3fc:	00000213          	li	tp,0
 400:	f0f0f137          	lui	sp,0xf0f0f
 404:	0f010113          	add	sp,sp,240 # f0f0f0f0 <_end+0xf0f0d0f0>
 408:	0ff010b7          	lui	ra,0xff01
 40c:	ff008093          	add	ra,ra,-16 # ff00ff0 <_end+0xfefeff0>
 410:	00000013          	nop
 414:	0020f733          	and	a4,ra,sp
 418:	00120213          	add	tp,tp,1 # 1 <_start+0x1>
 41c:	00200293          	li	t0,2
 420:	fe5210e3          	bne	tp,t0,400 <test_19+0x8>
 424:	00f003b7          	lui	t2,0xf00
 428:	0f038393          	add	t2,t2,240 # f000f0 <_end+0xefe0f0>
 42c:	14771a63          	bne	a4,t2,580 <fail>

00000430 <test_20>:
 430:	01400193          	li	gp,20
 434:	00000213          	li	tp,0
 438:	0f0f1137          	lui	sp,0xf0f1
 43c:	f0f10113          	add	sp,sp,-241 # f0f0f0f <_end+0xf0eef0f>
 440:	00ff00b7          	lui	ra,0xff0
 444:	0ff08093          	add	ra,ra,255 # ff00ff <_end+0xfee0ff>
 448:	00000013          	nop
 44c:	00000013          	nop
 450:	0020f733          	and	a4,ra,sp
 454:	00120213          	add	tp,tp,1 # 1 <_start+0x1>
 458:	00200293          	li	t0,2
 45c:	fc521ee3          	bne	tp,t0,438 <test_20+0x8>
 460:	000f03b7          	lui	t2,0xf0
 464:	00f38393          	add	t2,t2,15 # f000f <_end+0xee00f>
 468:	10771c63          	bne	a4,t2,580 <fail>

0000046c <test_21>:
 46c:	01500193          	li	gp,21
 470:	00000213          	li	tp,0
 474:	0f0f1137          	lui	sp,0xf0f1
 478:	f0f10113          	add	sp,sp,-241 # f0f0f0f <_end+0xf0eef0f>
 47c:	00000013          	nop
 480:	ff0100b7          	lui	ra,0xff010
 484:	f0008093          	add	ra,ra,-256 # ff00ff00 <_end+0xff00df00>
 488:	0020f733          	and	a4,ra,sp
 48c:	00120213          	add	tp,tp,1 # 1 <_start+0x1>
 490:	00200293          	li	t0,2
 494:	fe5210e3          	bne	tp,t0,474 <test_21+0x8>
 498:	0f0013b7          	lui	t2,0xf001
 49c:	f0038393          	add	t2,t2,-256 # f000f00 <_end+0xeffef00>
 4a0:	0e771063          	bne	a4,t2,580 <fail>

000004a4 <test_22>:
 4a4:	01600193          	li	gp,22
 4a8:	00000213          	li	tp,0
 4ac:	f0f0f137          	lui	sp,0xf0f0f
 4b0:	0f010113          	add	sp,sp,240 # f0f0f0f0 <_end+0xf0f0d0f0>
 4b4:	00000013          	nop
 4b8:	0ff010b7          	lui	ra,0xff01
 4bc:	ff008093          	add	ra,ra,-16 # ff00ff0 <_end+0xfefeff0>
 4c0:	00000013          	nop
 4c4:	0020f733          	and	a4,ra,sp
 4c8:	00120213          	add	tp,tp,1 # 1 <_start+0x1>
 4cc:	00200293          	li	t0,2
 4d0:	fc521ee3          	bne	tp,t0,4ac <test_22+0x8>
 4d4:	00f003b7          	lui	t2,0xf00
 4d8:	0f038393          	add	t2,t2,240 # f000f0 <_end+0xefe0f0>
 4dc:	0a771263          	bne	a4,t2,580 <fail>

000004e0 <test_23>:
 4e0:	01700193          	li	gp,23
 4e4:	00000213          	li	tp,0
 4e8:	0f0f1137          	lui	sp,0xf0f1
 4ec:	f0f10113          	add	sp,sp,-241 # f0f0f0f <_end+0xf0eef0f>
 4f0:	00000013          	nop
 4f4:	00000013          	nop
 4f8:	00ff00b7          	lui	ra,0xff0
 4fc:	0ff08093          	add	ra,ra,255 # ff00ff <_end+0xfee0ff>
 500:	0020f733          	and	a4,ra,sp
 504:	00120213          	add	tp,tp,1 # 1 <_start+0x1>
 508:	00200293          	li	t0,2
 50c:	fc521ee3          	bne	tp,t0,4e8 <test_23+0x8>
 510:	000f03b7          	lui	t2,0xf0
 514:	00f38393          	add	t2,t2,15 # f000f <_end+0xee00f>
 518:	06771463          	bne	a4,t2,580 <fail>

0000051c <test_24>:
 51c:	01800193          	li	gp,24
 520:	ff0100b7          	lui	ra,0xff010
 524:	f0008093          	add	ra,ra,-256 # ff00ff00 <_end+0xff00df00>
 528:	00107133          	and	sp,zero,ra
 52c:	00000393          	li	t2,0
 530:	04711863          	bne	sp,t2,580 <fail>

00000534 <test_25>:
 534:	01900193          	li	gp,25
 538:	00ff00b7          	lui	ra,0xff0
 53c:	0ff08093          	add	ra,ra,255 # ff00ff <_end+0xfee0ff>
 540:	0000f133          	and	sp,ra,zero
 544:	00000393          	li	t2,0
 548:	02711c63          	bne	sp,t2,580 <fail>

0000054c <test_26>:
 54c:	01a00193          	li	gp,26
 550:	000070b3          	and	ra,zero,zero
 554:	00000393          	li	t2,0
 558:	02709463          	bne	ra,t2,580 <fail>

0000055c <test_27>:
 55c:	01b00193          	li	gp,27
 560:	111110b7          	lui	ra,0x11111
 564:	11108093          	add	ra,ra,273 # 11111111 <_end+0x1110f111>
 568:	22222137          	lui	sp,0x22222
 56c:	22210113          	add	sp,sp,546 # 22222222 <_end+0x22220222>
 570:	0020f033          	and	zero,ra,sp
 574:	00000393          	li	t2,0
 578:	00701463          	bne	zero,t2,580 <fail>
 57c:	02301863          	bne	zero,gp,5ac <pass>

00000580 <fail>:
 580:	0ff0000f          	fence
 584:	04e00513          	li	a0,78
 588:	fea00fa3          	sb	a0,-1(zero) # ffffffff <_end+0xffffdfff>
 58c:	06f00513          	li	a0,111
 590:	fea00fa3          	sb	a0,-1(zero) # ffffffff <_end+0xffffdfff>
 594:	00a00513          	li	a0,10
 598:	fea00fa3          	sb	a0,-1(zero) # ffffffff <_end+0xffffdfff>
 59c:	00018063          	beqz	gp,59c <fail+0x1c>
 5a0:	00119193          	sll	gp,gp,0x1
 5a4:	0011e193          	or	gp,gp,1
 5a8:	c0001073          	unimp

000005ac <pass>:
 5ac:	0ff0000f          	fence
 5b0:	04f00513          	li	a0,79
 5b4:	fea00fa3          	sb	a0,-1(zero) # ffffffff <_end+0xffffdfff>
 5b8:	06b00513          	li	a0,107
 5bc:	fea00fa3          	sb	a0,-1(zero) # ffffffff <_end+0xffffdfff>
 5c0:	00a00513          	li	a0,10
 5c4:	fea00fa3          	sb	a0,-1(zero) # ffffffff <_end+0xffffdfff>
 5c8:	00100193          	li	gp,1
 5cc:	c0001073          	unimp
 5d0:	c0001073          	unimp
	...
