
andi.elf:     file format elf32-littleriscv


Disassembly of section .text.init:

00000000 <_start>:
   0:	0040006f          	j	4 <reset_vector>

00000004 <reset_vector>:
   4:	00000093          	li	ra,0
   8:	00000113          	li	sp,0
   c:	00000193          	li	gp,0
  10:	00000213          	li	tp,0
  14:	00000293          	li	t0,0
  18:	00000313          	li	t1,0
  1c:	00000393          	li	t2,0
  20:	00000413          	li	s0,0
  24:	00000493          	li	s1,0
  28:	00000513          	li	a0,0
  2c:	00000593          	li	a1,0
  30:	00000613          	li	a2,0
  34:	00000693          	li	a3,0
  38:	00000713          	li	a4,0
  3c:	00000793          	li	a5,0
  40:	00000813          	li	a6,0
  44:	00000893          	li	a7,0
  48:	00000913          	li	s2,0
  4c:	00000993          	li	s3,0
  50:	00000a13          	li	s4,0
  54:	00000a93          	li	s5,0
  58:	00000b13          	li	s6,0
  5c:	00000b93          	li	s7,0
  60:	00000c13          	li	s8,0
  64:	00000c93          	li	s9,0
  68:	00000d13          	li	s10,0
  6c:	00000d93          	li	s11,0
  70:	00000e13          	li	t3,0
  74:	00000e93          	li	t4,0
  78:	00000f13          	li	t5,0
  7c:	00000f93          	li	t6,0
  80:	00000193          	li	gp,0
  84:	00100513          	li	a0,1
  88:	01f51513          	sll	a0,a0,0x1f
  8c:	02054263          	bltz	a0,b0 <reset_vector+0xac>
  90:	0ff0000f          	fence
  94:	04f00513          	li	a0,79
  98:	fea00fa3          	sb	a0,-1(zero) # ffffffff <_end+0xffffdfff>
  9c:	06b00513          	li	a0,107
  a0:	fea00fa3          	sb	a0,-1(zero) # ffffffff <_end+0xffffdfff>
  a4:	00a00513          	li	a0,10
  a8:	fea00fa3          	sb	a0,-1(zero) # ffffffff <_end+0xffffdfff>
  ac:	00100193          	li	gp,1
  b0:	30005073          	csrw	mstatus,0
  b4:	00000297          	auipc	t0,0x0
  b8:	01428293          	add	t0,t0,20 # c8 <test_2>
  bc:	34129073          	csrw	mepc,t0
  c0:	f1402573          	csrr	a0,mhartid
  c4:	30200073          	mret

000000c8 <test_2>:
  c8:	00200193          	li	gp,2
  cc:	ff0100b7          	lui	ra,0xff010
  d0:	f0008093          	add	ra,ra,-256 # ff00ff00 <_end+0xff00df00>
  d4:	f0f0f713          	and	a4,ra,-241
  d8:	ff0103b7          	lui	t2,0xff010
  dc:	f0038393          	add	t2,t2,-256 # ff00ff00 <_end+0xff00df00>
  e0:	1a771463          	bne	a4,t2,288 <fail>

000000e4 <test_3>:
  e4:	00300193          	li	gp,3
  e8:	0ff010b7          	lui	ra,0xff01
  ec:	ff008093          	add	ra,ra,-16 # ff00ff0 <_end+0xfefeff0>
  f0:	0f00f713          	and	a4,ra,240
  f4:	0f000393          	li	t2,240
  f8:	18771863          	bne	a4,t2,288 <fail>

000000fc <test_4>:
  fc:	00400193          	li	gp,4
 100:	00ff00b7          	lui	ra,0xff0
 104:	0ff08093          	add	ra,ra,255 # ff00ff <_end+0xfee0ff>
 108:	70f0f713          	and	a4,ra,1807
 10c:	00f00393          	li	t2,15
 110:	16771c63          	bne	a4,t2,288 <fail>

00000114 <test_5>:
 114:	00500193          	li	gp,5
 118:	f00ff0b7          	lui	ra,0xf00ff
 11c:	00f08093          	add	ra,ra,15 # f00ff00f <_end+0xf00fd00f>
 120:	0f00f713          	and	a4,ra,240
 124:	00000393          	li	t2,0
 128:	16771063          	bne	a4,t2,288 <fail>

0000012c <test_6>:
 12c:	00600193          	li	gp,6
 130:	ff0100b7          	lui	ra,0xff010
 134:	f0008093          	add	ra,ra,-256 # ff00ff00 <_end+0xff00df00>
 138:	0f00f093          	and	ra,ra,240
 13c:	00000393          	li	t2,0
 140:	14709463          	bne	ra,t2,288 <fail>

00000144 <test_7>:
 144:	00700193          	li	gp,7
 148:	00000213          	li	tp,0
 14c:	0ff010b7          	lui	ra,0xff01
 150:	ff008093          	add	ra,ra,-16 # ff00ff0 <_end+0xfefeff0>
 154:	70f0f713          	and	a4,ra,1807
 158:	00070313          	mv	t1,a4
 15c:	00120213          	add	tp,tp,1 # 1 <_start+0x1>
 160:	00200293          	li	t0,2
 164:	fe5214e3          	bne	tp,t0,14c <test_7+0x8>
 168:	70000393          	li	t2,1792
 16c:	10731e63          	bne	t1,t2,288 <fail>

00000170 <test_8>:
 170:	00800193          	li	gp,8
 174:	00000213          	li	tp,0
 178:	00ff00b7          	lui	ra,0xff0
 17c:	0ff08093          	add	ra,ra,255 # ff00ff <_end+0xfee0ff>
 180:	0f00f713          	and	a4,ra,240
 184:	00000013          	nop
 188:	00070313          	mv	t1,a4
 18c:	00120213          	add	tp,tp,1 # 1 <_start+0x1>
 190:	00200293          	li	t0,2
 194:	fe5212e3          	bne	tp,t0,178 <test_8+0x8>
 198:	0f000393          	li	t2,240
 19c:	0e731663          	bne	t1,t2,288 <fail>

000001a0 <test_9>:
 1a0:	00900193          	li	gp,9
 1a4:	00000213          	li	tp,0
 1a8:	f00ff0b7          	lui	ra,0xf00ff
 1ac:	00f08093          	add	ra,ra,15 # f00ff00f <_end+0xf00fd00f>
 1b0:	f0f0f713          	and	a4,ra,-241
 1b4:	00000013          	nop
 1b8:	00000013          	nop
 1bc:	00070313          	mv	t1,a4
 1c0:	00120213          	add	tp,tp,1 # 1 <_start+0x1>
 1c4:	00200293          	li	t0,2
 1c8:	fe5210e3          	bne	tp,t0,1a8 <test_9+0x8>
 1cc:	f00ff3b7          	lui	t2,0xf00ff
 1d0:	00f38393          	add	t2,t2,15 # f00ff00f <_end+0xf00fd00f>
 1d4:	0a731a63          	bne	t1,t2,288 <fail>

000001d8 <test_10>:
 1d8:	00a00193          	li	gp,10
 1dc:	00000213          	li	tp,0
 1e0:	0ff010b7          	lui	ra,0xff01
 1e4:	ff008093          	add	ra,ra,-16 # ff00ff0 <_end+0xfefeff0>
 1e8:	70f0f713          	and	a4,ra,1807
 1ec:	00120213          	add	tp,tp,1 # 1 <_start+0x1>
 1f0:	00200293          	li	t0,2
 1f4:	fe5216e3          	bne	tp,t0,1e0 <test_10+0x8>
 1f8:	70000393          	li	t2,1792
 1fc:	08771663          	bne	a4,t2,288 <fail>

00000200 <test_11>:
 200:	00b00193          	li	gp,11
 204:	00000213          	li	tp,0
 208:	00ff00b7          	lui	ra,0xff0
 20c:	0ff08093          	add	ra,ra,255 # ff00ff <_end+0xfee0ff>
 210:	00000013          	nop
 214:	0f00f713          	and	a4,ra,240
 218:	00120213          	add	tp,tp,1 # 1 <_start+0x1>
 21c:	00200293          	li	t0,2
 220:	fe5214e3          	bne	tp,t0,208 <test_11+0x8>
 224:	0f000393          	li	t2,240
 228:	06771063          	bne	a4,t2,288 <fail>

0000022c <test_12>:
 22c:	00c00193          	li	gp,12
 230:	00000213          	li	tp,0
 234:	f00ff0b7          	lui	ra,0xf00ff
 238:	00f08093          	add	ra,ra,15 # f00ff00f <_end+0xf00fd00f>
 23c:	00000013          	nop
 240:	00000013          	nop
 244:	70f0f713          	and	a4,ra,1807
 248:	00120213          	add	tp,tp,1 # 1 <_start+0x1>
 24c:	00200293          	li	t0,2
 250:	fe5212e3          	bne	tp,t0,234 <test_12+0x8>
 254:	00f00393          	li	t2,15
 258:	02771863          	bne	a4,t2,288 <fail>

0000025c <test_13>:
 25c:	00d00193          	li	gp,13
 260:	0f007093          	and	ra,zero,240
 264:	00000393          	li	t2,0
 268:	02709063          	bne	ra,t2,288 <fail>

0000026c <test_14>:
 26c:	00e00193          	li	gp,14
 270:	00ff00b7          	lui	ra,0xff0
 274:	0ff08093          	add	ra,ra,255 # ff00ff <_end+0xfee0ff>
 278:	70f0f013          	and	zero,ra,1807
 27c:	00000393          	li	t2,0
 280:	00701463          	bne	zero,t2,288 <fail>
 284:	02301263          	bne	zero,gp,2a8 <pass>

00000288 <fail>:
 288:	0ff0000f          	fence
 28c:	04e00513          	li	a0,78
 290:	fea00fa3          	sb	a0,-1(zero) # ffffffff <_end+0xffffdfff>
 294:	06f00513          	li	a0,111
 298:	fea00fa3          	sb	a0,-1(zero) # ffffffff <_end+0xffffdfff>
 29c:	00a00513          	li	a0,10
 2a0:	fea00fa3          	sb	a0,-1(zero) # ffffffff <_end+0xffffdfff>
 2a4:	c0001073          	unimp

000002a8 <pass>:
 2a8:	0ff0000f          	fence
 2ac:	04f00513          	li	a0,79
 2b0:	fea00fa3          	sb	a0,-1(zero) # ffffffff <_end+0xffffdfff>
 2b4:	06b00513          	li	a0,107
 2b8:	fea00fa3          	sb	a0,-1(zero) # ffffffff <_end+0xffffdfff>
 2bc:	00a00513          	li	a0,10
 2c0:	fea00fa3          	sb	a0,-1(zero) # ffffffff <_end+0xffffdfff>
 2c4:	00100193          	li	gp,1
 2c8:	c0001073          	unimp
 2cc:	c0001073          	unimp
	...
