
beq.elf:     file format elf32-littleriscv


Disassembly of section .text.init:

00000000 <_start>:
   0:	0500006f          	j	50 <reset_vector>

00000004 <trap_vector>:
   4:	34202f73          	csrr	t5,mcause
   8:	00800f93          	li	t6,8
   c:	03ff0863          	beq	t5,t6,3c <write_tohost>
  10:	00900f93          	li	t6,9
  14:	03ff0463          	beq	t5,t6,3c <write_tohost>
  18:	00b00f93          	li	t6,11
  1c:	03ff0063          	beq	t5,t6,3c <write_tohost>
  20:	00000f13          	li	t5,0
  24:	000f0463          	beqz	t5,2c <trap_vector+0x28>
  28:	000f0067          	jr	t5
  2c:	34202f73          	csrr	t5,mcause
  30:	000f5463          	bgez	t5,38 <handle_exception>
  34:	0040006f          	j	38 <handle_exception>

00000038 <handle_exception>:
  38:	5391e193          	or	gp,gp,1337

0000003c <write_tohost>:
  3c:	00001f17          	auipc	t5,0x1
  40:	fc3f2223          	sw	gp,-60(t5) # 1000 <tohost>
  44:	00001f17          	auipc	t5,0x1
  48:	fc0f2023          	sw	zero,-64(t5) # 1004 <tohost+0x4>
  4c:	ff1ff06f          	j	3c <write_tohost>

00000050 <reset_vector>:
  50:	00000093          	li	ra,0
  54:	00000113          	li	sp,0
  58:	00000193          	li	gp,0
  5c:	00000213          	li	tp,0
  60:	00000293          	li	t0,0
  64:	00000313          	li	t1,0
  68:	00000393          	li	t2,0
  6c:	00000413          	li	s0,0
  70:	00000493          	li	s1,0
  74:	00000513          	li	a0,0
  78:	00000593          	li	a1,0
  7c:	00000613          	li	a2,0
  80:	00000693          	li	a3,0
  84:	00000713          	li	a4,0
  88:	00000793          	li	a5,0
  8c:	00000813          	li	a6,0
  90:	00000893          	li	a7,0
  94:	00000913          	li	s2,0
  98:	00000993          	li	s3,0
  9c:	00000a13          	li	s4,0
  a0:	00000a93          	li	s5,0
  a4:	00000b13          	li	s6,0
  a8:	00000b93          	li	s7,0
  ac:	00000c13          	li	s8,0
  b0:	00000c93          	li	s9,0
  b4:	00000d13          	li	s10,0
  b8:	00000d93          	li	s11,0
  bc:	00000e13          	li	t3,0
  c0:	00000e93          	li	t4,0
  c4:	00000f13          	li	t5,0
  c8:	00000f93          	li	t6,0
  cc:	f1402573          	csrr	a0,mhartid
  d0:	00051063          	bnez	a0,d0 <reset_vector+0x80>
  d4:	00000297          	auipc	t0,0x0
  d8:	01028293          	add	t0,t0,16 # e4 <reset_vector+0x94>
  dc:	30529073          	csrw	mtvec,t0
  e0:	74445073          	csrw	0x744,8
  e4:	00000297          	auipc	t0,0x0
  e8:	01028293          	add	t0,t0,16 # f4 <reset_vector+0xa4>
  ec:	30529073          	csrw	mtvec,t0
  f0:	18005073          	csrw	satp,0
  f4:	00000297          	auipc	t0,0x0
  f8:	02028293          	add	t0,t0,32 # 114 <reset_vector+0xc4>
  fc:	30529073          	csrw	mtvec,t0
 100:	800002b7          	lui	t0,0x80000
 104:	fff28293          	add	t0,t0,-1 # 7fffffff <_end+0x7fffdfff>
 108:	3b029073          	csrw	pmpaddr0,t0
 10c:	01f00293          	li	t0,31
 110:	3a029073          	csrw	pmpcfg0,t0
 114:	30405073          	csrw	mie,0
 118:	00000297          	auipc	t0,0x0
 11c:	01428293          	add	t0,t0,20 # 12c <reset_vector+0xdc>
 120:	30529073          	csrw	mtvec,t0
 124:	30205073          	csrw	medeleg,0
 128:	30305073          	csrw	mideleg,0
 12c:	00000193          	li	gp,0
 130:	00000297          	auipc	t0,0x0
 134:	ed428293          	add	t0,t0,-300 # 4 <trap_vector>
 138:	30529073          	csrw	mtvec,t0
 13c:	00100513          	li	a0,1
 140:	01f51513          	sll	a0,a0,0x1f
 144:	00054c63          	bltz	a0,15c <reset_vector+0x10c>
 148:	0ff0000f          	fence
 14c:	00100193          	li	gp,1
 150:	05d00893          	li	a7,93
 154:	00000513          	li	a0,0
 158:	00000073          	ecall
 15c:	00000293          	li	t0,0
 160:	00028a63          	beqz	t0,174 <reset_vector+0x124>
 164:	10529073          	csrw	stvec,t0
 168:	0000b2b7          	lui	t0,0xb
 16c:	10928293          	add	t0,t0,265 # b109 <_end+0x9109>
 170:	30229073          	csrw	medeleg,t0
 174:	30005073          	csrw	mstatus,0
 178:	00000297          	auipc	t0,0x0
 17c:	01428293          	add	t0,t0,20 # 18c <test_2>
 180:	34129073          	csrw	mepc,t0
 184:	f1402573          	csrr	a0,mhartid
 188:	30200073          	mret

0000018c <test_2>:
 18c:	00200193          	li	gp,2
 190:	00000093          	li	ra,0
 194:	00000113          	li	sp,0
 198:	00208663          	beq	ra,sp,1a4 <test_2+0x18>
 19c:	2a301863          	bne	zero,gp,44c <fail>
 1a0:	00301663          	bne	zero,gp,1ac <test_3>
 1a4:	fe208ee3          	beq	ra,sp,1a0 <test_2+0x14>
 1a8:	2a301263          	bne	zero,gp,44c <fail>

000001ac <test_3>:
 1ac:	00300193          	li	gp,3
 1b0:	00100093          	li	ra,1
 1b4:	00100113          	li	sp,1
 1b8:	00208663          	beq	ra,sp,1c4 <test_3+0x18>
 1bc:	28301863          	bne	zero,gp,44c <fail>
 1c0:	00301663          	bne	zero,gp,1cc <test_4>
 1c4:	fe208ee3          	beq	ra,sp,1c0 <test_3+0x14>
 1c8:	28301263          	bne	zero,gp,44c <fail>

000001cc <test_4>:
 1cc:	00400193          	li	gp,4
 1d0:	fff00093          	li	ra,-1
 1d4:	fff00113          	li	sp,-1
 1d8:	00208663          	beq	ra,sp,1e4 <test_4+0x18>
 1dc:	26301863          	bne	zero,gp,44c <fail>
 1e0:	00301663          	bne	zero,gp,1ec <test_5>
 1e4:	fe208ee3          	beq	ra,sp,1e0 <test_4+0x14>
 1e8:	26301263          	bne	zero,gp,44c <fail>

000001ec <test_5>:
 1ec:	00500193          	li	gp,5
 1f0:	00000093          	li	ra,0
 1f4:	00100113          	li	sp,1
 1f8:	00208463          	beq	ra,sp,200 <test_5+0x14>
 1fc:	00301463          	bne	zero,gp,204 <test_5+0x18>
 200:	24301663          	bne	zero,gp,44c <fail>
 204:	fe208ee3          	beq	ra,sp,200 <test_5+0x14>

00000208 <test_6>:
 208:	00600193          	li	gp,6
 20c:	00100093          	li	ra,1
 210:	00000113          	li	sp,0
 214:	00208463          	beq	ra,sp,21c <test_6+0x14>
 218:	00301463          	bne	zero,gp,220 <test_6+0x18>
 21c:	22301863          	bne	zero,gp,44c <fail>
 220:	fe208ee3          	beq	ra,sp,21c <test_6+0x14>

00000224 <test_7>:
 224:	00700193          	li	gp,7
 228:	fff00093          	li	ra,-1
 22c:	00100113          	li	sp,1
 230:	00208463          	beq	ra,sp,238 <test_7+0x14>
 234:	00301463          	bne	zero,gp,23c <test_7+0x18>
 238:	20301a63          	bne	zero,gp,44c <fail>
 23c:	fe208ee3          	beq	ra,sp,238 <test_7+0x14>

00000240 <test_8>:
 240:	00800193          	li	gp,8
 244:	00100093          	li	ra,1
 248:	fff00113          	li	sp,-1
 24c:	00208463          	beq	ra,sp,254 <test_8+0x14>
 250:	00301463          	bne	zero,gp,258 <test_8+0x18>
 254:	1e301c63          	bne	zero,gp,44c <fail>
 258:	fe208ee3          	beq	ra,sp,254 <test_8+0x14>

0000025c <test_9>:
 25c:	00900193          	li	gp,9
 260:	00000213          	li	tp,0
 264:	00000093          	li	ra,0
 268:	fff00113          	li	sp,-1
 26c:	1e208063          	beq	ra,sp,44c <fail>
 270:	00120213          	add	tp,tp,1 # 1 <_start+0x1>
 274:	00200293          	li	t0,2
 278:	fe5216e3          	bne	tp,t0,264 <test_9+0x8>

0000027c <test_10>:
 27c:	00a00193          	li	gp,10
 280:	00000213          	li	tp,0
 284:	00000093          	li	ra,0
 288:	fff00113          	li	sp,-1
 28c:	00000013          	nop
 290:	1a208e63          	beq	ra,sp,44c <fail>
 294:	00120213          	add	tp,tp,1 # 1 <_start+0x1>
 298:	00200293          	li	t0,2
 29c:	fe5214e3          	bne	tp,t0,284 <test_10+0x8>

000002a0 <test_11>:
 2a0:	00b00193          	li	gp,11
 2a4:	00000213          	li	tp,0
 2a8:	00000093          	li	ra,0
 2ac:	fff00113          	li	sp,-1
 2b0:	00000013          	nop
 2b4:	00000013          	nop
 2b8:	18208a63          	beq	ra,sp,44c <fail>
 2bc:	00120213          	add	tp,tp,1 # 1 <_start+0x1>
 2c0:	00200293          	li	t0,2
 2c4:	fe5212e3          	bne	tp,t0,2a8 <test_11+0x8>

000002c8 <test_12>:
 2c8:	00c00193          	li	gp,12
 2cc:	00000213          	li	tp,0
 2d0:	00000093          	li	ra,0
 2d4:	00000013          	nop
 2d8:	fff00113          	li	sp,-1
 2dc:	16208863          	beq	ra,sp,44c <fail>
 2e0:	00120213          	add	tp,tp,1 # 1 <_start+0x1>
 2e4:	00200293          	li	t0,2
 2e8:	fe5214e3          	bne	tp,t0,2d0 <test_12+0x8>

000002ec <test_13>:
 2ec:	00d00193          	li	gp,13
 2f0:	00000213          	li	tp,0
 2f4:	00000093          	li	ra,0
 2f8:	00000013          	nop
 2fc:	fff00113          	li	sp,-1
 300:	00000013          	nop
 304:	14208463          	beq	ra,sp,44c <fail>
 308:	00120213          	add	tp,tp,1 # 1 <_start+0x1>
 30c:	00200293          	li	t0,2
 310:	fe5212e3          	bne	tp,t0,2f4 <test_13+0x8>

00000314 <test_14>:
 314:	00e00193          	li	gp,14
 318:	00000213          	li	tp,0
 31c:	00000093          	li	ra,0
 320:	00000013          	nop
 324:	00000013          	nop
 328:	fff00113          	li	sp,-1
 32c:	12208063          	beq	ra,sp,44c <fail>
 330:	00120213          	add	tp,tp,1 # 1 <_start+0x1>
 334:	00200293          	li	t0,2
 338:	fe5212e3          	bne	tp,t0,31c <test_14+0x8>

0000033c <test_15>:
 33c:	00f00193          	li	gp,15
 340:	00000213          	li	tp,0
 344:	00000093          	li	ra,0
 348:	fff00113          	li	sp,-1
 34c:	10208063          	beq	ra,sp,44c <fail>
 350:	00120213          	add	tp,tp,1 # 1 <_start+0x1>
 354:	00200293          	li	t0,2
 358:	fe5216e3          	bne	tp,t0,344 <test_15+0x8>

0000035c <test_16>:
 35c:	01000193          	li	gp,16
 360:	00000213          	li	tp,0
 364:	00000093          	li	ra,0
 368:	fff00113          	li	sp,-1
 36c:	00000013          	nop
 370:	0c208e63          	beq	ra,sp,44c <fail>
 374:	00120213          	add	tp,tp,1 # 1 <_start+0x1>
 378:	00200293          	li	t0,2
 37c:	fe5214e3          	bne	tp,t0,364 <test_16+0x8>

00000380 <test_17>:
 380:	01100193          	li	gp,17
 384:	00000213          	li	tp,0
 388:	00000093          	li	ra,0
 38c:	fff00113          	li	sp,-1
 390:	00000013          	nop
 394:	00000013          	nop
 398:	0a208a63          	beq	ra,sp,44c <fail>
 39c:	00120213          	add	tp,tp,1 # 1 <_start+0x1>
 3a0:	00200293          	li	t0,2
 3a4:	fe5212e3          	bne	tp,t0,388 <test_17+0x8>

000003a8 <test_18>:
 3a8:	01200193          	li	gp,18
 3ac:	00000213          	li	tp,0
 3b0:	00000093          	li	ra,0
 3b4:	00000013          	nop
 3b8:	fff00113          	li	sp,-1
 3bc:	08208863          	beq	ra,sp,44c <fail>
 3c0:	00120213          	add	tp,tp,1 # 1 <_start+0x1>
 3c4:	00200293          	li	t0,2
 3c8:	fe5214e3          	bne	tp,t0,3b0 <test_18+0x8>

000003cc <test_19>:
 3cc:	01300193          	li	gp,19
 3d0:	00000213          	li	tp,0
 3d4:	00000093          	li	ra,0
 3d8:	00000013          	nop
 3dc:	fff00113          	li	sp,-1
 3e0:	00000013          	nop
 3e4:	06208463          	beq	ra,sp,44c <fail>
 3e8:	00120213          	add	tp,tp,1 # 1 <_start+0x1>
 3ec:	00200293          	li	t0,2
 3f0:	fe5212e3          	bne	tp,t0,3d4 <test_19+0x8>

000003f4 <test_20>:
 3f4:	01400193          	li	gp,20
 3f8:	00000213          	li	tp,0
 3fc:	00000093          	li	ra,0
 400:	00000013          	nop
 404:	00000013          	nop
 408:	fff00113          	li	sp,-1
 40c:	04208063          	beq	ra,sp,44c <fail>
 410:	00120213          	add	tp,tp,1 # 1 <_start+0x1>
 414:	00200293          	li	t0,2
 418:	fe5212e3          	bne	tp,t0,3fc <test_20+0x8>

0000041c <test_21>:
 41c:	01500193          	li	gp,21
 420:	00100093          	li	ra,1
 424:	00000a63          	beqz	zero,438 <test_21+0x1c>
 428:	00108093          	add	ra,ra,1
 42c:	00108093          	add	ra,ra,1
 430:	00108093          	add	ra,ra,1
 434:	00108093          	add	ra,ra,1
 438:	00108093          	add	ra,ra,1
 43c:	00108093          	add	ra,ra,1
 440:	00300393          	li	t2,3
 444:	00709463          	bne	ra,t2,44c <fail>
 448:	02301063          	bne	zero,gp,468 <pass>

0000044c <fail>:
 44c:	0ff0000f          	fence
 450:	00018063          	beqz	gp,450 <fail+0x4>
 454:	00119193          	sll	gp,gp,0x1
 458:	0011e193          	or	gp,gp,1
 45c:	05d00893          	li	a7,93
 460:	00018513          	mv	a0,gp
 464:	00000073          	ecall

00000468 <pass>:
 468:	0ff0000f          	fence
 46c:	00100193          	li	gp,1
 470:	05d00893          	li	a7,93
 474:	00000513          	li	a0,0
 478:	00000073          	ecall
 47c:	c0001073          	unimp
	...
