
bge.elf:     file format elf32-littleriscv


Disassembly of section .text.init:

00000000 <_start>:
   0:	0040006f          	j	4 <reset_vector>

00000004 <reset_vector>:
   4:	00000093          	li	ra,0
   8:	00000113          	li	sp,0
   c:	00000193          	li	gp,0
  10:	00000213          	li	tp,0
  14:	00000293          	li	t0,0
  18:	00000313          	li	t1,0
  1c:	00000393          	li	t2,0
  20:	00000413          	li	s0,0
  24:	00000493          	li	s1,0
  28:	00000513          	li	a0,0
  2c:	00000593          	li	a1,0
  30:	00000613          	li	a2,0
  34:	00000693          	li	a3,0
  38:	00000713          	li	a4,0
  3c:	00000793          	li	a5,0
  40:	00000813          	li	a6,0
  44:	00000893          	li	a7,0
  48:	00000913          	li	s2,0
  4c:	00000993          	li	s3,0
  50:	00000a13          	li	s4,0
  54:	00000a93          	li	s5,0
  58:	00000b13          	li	s6,0
  5c:	00000b93          	li	s7,0
  60:	00000c13          	li	s8,0
  64:	00000c93          	li	s9,0
  68:	00000d13          	li	s10,0
  6c:	00000d93          	li	s11,0
  70:	00000e13          	li	t3,0
  74:	00000e93          	li	t4,0
  78:	00000f13          	li	t5,0
  7c:	00000f93          	li	t6,0
  80:	00000193          	li	gp,0
  84:	00100513          	li	a0,1
  88:	01f51513          	sll	a0,a0,0x1f
  8c:	02054263          	bltz	a0,b0 <reset_vector+0xac>
  90:	0ff0000f          	fence
  94:	04f00513          	li	a0,79
  98:	fea00fa3          	sb	a0,-1(zero) # ffffffff <_end+0xffffdfff>
  9c:	06b00513          	li	a0,107
  a0:	fea00fa3          	sb	a0,-1(zero) # ffffffff <_end+0xffffdfff>
  a4:	00a00513          	li	a0,10
  a8:	fea00fa3          	sb	a0,-1(zero) # ffffffff <_end+0xffffdfff>
  ac:	00100193          	li	gp,1
  b0:	30005073          	csrw	mstatus,0
  b4:	00000297          	auipc	t0,0x0
  b8:	01428293          	add	t0,t0,20 # c8 <test_2>
  bc:	34129073          	csrw	mepc,t0
  c0:	f1402573          	csrr	a0,mhartid
  c4:	30200073          	mret

000000c8 <test_2>:
  c8:	00200193          	li	gp,2
  cc:	00000093          	li	ra,0
  d0:	00000113          	li	sp,0
  d4:	0020d663          	bge	ra,sp,e0 <test_2+0x18>
  d8:	30301863          	bne	zero,gp,3e8 <fail>
  dc:	00301663          	bne	zero,gp,e8 <test_3>
  e0:	fe20dee3          	bge	ra,sp,dc <test_2+0x14>
  e4:	30301263          	bne	zero,gp,3e8 <fail>

000000e8 <test_3>:
  e8:	00300193          	li	gp,3
  ec:	00100093          	li	ra,1
  f0:	00100113          	li	sp,1
  f4:	0020d663          	bge	ra,sp,100 <test_3+0x18>
  f8:	2e301863          	bne	zero,gp,3e8 <fail>
  fc:	00301663          	bne	zero,gp,108 <test_4>
 100:	fe20dee3          	bge	ra,sp,fc <test_3+0x14>
 104:	2e301263          	bne	zero,gp,3e8 <fail>

00000108 <test_4>:
 108:	00400193          	li	gp,4
 10c:	fff00093          	li	ra,-1
 110:	fff00113          	li	sp,-1
 114:	0020d663          	bge	ra,sp,120 <test_4+0x18>
 118:	2c301863          	bne	zero,gp,3e8 <fail>
 11c:	00301663          	bne	zero,gp,128 <test_5>
 120:	fe20dee3          	bge	ra,sp,11c <test_4+0x14>
 124:	2c301263          	bne	zero,gp,3e8 <fail>

00000128 <test_5>:
 128:	00500193          	li	gp,5
 12c:	00100093          	li	ra,1
 130:	00000113          	li	sp,0
 134:	0020d663          	bge	ra,sp,140 <test_5+0x18>
 138:	2a301863          	bne	zero,gp,3e8 <fail>
 13c:	00301663          	bne	zero,gp,148 <test_6>
 140:	fe20dee3          	bge	ra,sp,13c <test_5+0x14>
 144:	2a301263          	bne	zero,gp,3e8 <fail>

00000148 <test_6>:
 148:	00600193          	li	gp,6
 14c:	00100093          	li	ra,1
 150:	fff00113          	li	sp,-1
 154:	0020d663          	bge	ra,sp,160 <test_6+0x18>
 158:	28301863          	bne	zero,gp,3e8 <fail>
 15c:	00301663          	bne	zero,gp,168 <test_7>
 160:	fe20dee3          	bge	ra,sp,15c <test_6+0x14>
 164:	28301263          	bne	zero,gp,3e8 <fail>

00000168 <test_7>:
 168:	00700193          	li	gp,7
 16c:	fff00093          	li	ra,-1
 170:	ffe00113          	li	sp,-2
 174:	0020d663          	bge	ra,sp,180 <test_7+0x18>
 178:	26301863          	bne	zero,gp,3e8 <fail>
 17c:	00301663          	bne	zero,gp,188 <test_8>
 180:	fe20dee3          	bge	ra,sp,17c <test_7+0x14>
 184:	26301263          	bne	zero,gp,3e8 <fail>

00000188 <test_8>:
 188:	00800193          	li	gp,8
 18c:	00000093          	li	ra,0
 190:	00100113          	li	sp,1
 194:	0020d463          	bge	ra,sp,19c <test_8+0x14>
 198:	00301463          	bne	zero,gp,1a0 <test_8+0x18>
 19c:	24301663          	bne	zero,gp,3e8 <fail>
 1a0:	fe20dee3          	bge	ra,sp,19c <test_8+0x14>

000001a4 <test_9>:
 1a4:	00900193          	li	gp,9
 1a8:	fff00093          	li	ra,-1
 1ac:	00100113          	li	sp,1
 1b0:	0020d463          	bge	ra,sp,1b8 <test_9+0x14>
 1b4:	00301463          	bne	zero,gp,1bc <test_9+0x18>
 1b8:	22301863          	bne	zero,gp,3e8 <fail>
 1bc:	fe20dee3          	bge	ra,sp,1b8 <test_9+0x14>

000001c0 <test_10>:
 1c0:	00a00193          	li	gp,10
 1c4:	ffe00093          	li	ra,-2
 1c8:	fff00113          	li	sp,-1
 1cc:	0020d463          	bge	ra,sp,1d4 <test_10+0x14>
 1d0:	00301463          	bne	zero,gp,1d8 <test_10+0x18>
 1d4:	20301a63          	bne	zero,gp,3e8 <fail>
 1d8:	fe20dee3          	bge	ra,sp,1d4 <test_10+0x14>

000001dc <test_11>:
 1dc:	00b00193          	li	gp,11
 1e0:	ffe00093          	li	ra,-2
 1e4:	00100113          	li	sp,1
 1e8:	0020d463          	bge	ra,sp,1f0 <test_11+0x14>
 1ec:	00301463          	bne	zero,gp,1f4 <test_11+0x18>
 1f0:	1e301c63          	bne	zero,gp,3e8 <fail>
 1f4:	fe20dee3          	bge	ra,sp,1f0 <test_11+0x14>

000001f8 <test_12>:
 1f8:	00c00193          	li	gp,12
 1fc:	00000213          	li	tp,0
 200:	fff00093          	li	ra,-1
 204:	00000113          	li	sp,0
 208:	1e20d063          	bge	ra,sp,3e8 <fail>
 20c:	00120213          	add	tp,tp,1 # 1 <_start+0x1>
 210:	00200293          	li	t0,2
 214:	fe5216e3          	bne	tp,t0,200 <test_12+0x8>

00000218 <test_13>:
 218:	00d00193          	li	gp,13
 21c:	00000213          	li	tp,0
 220:	fff00093          	li	ra,-1
 224:	00000113          	li	sp,0
 228:	00000013          	nop
 22c:	1a20de63          	bge	ra,sp,3e8 <fail>
 230:	00120213          	add	tp,tp,1 # 1 <_start+0x1>
 234:	00200293          	li	t0,2
 238:	fe5214e3          	bne	tp,t0,220 <test_13+0x8>

0000023c <test_14>:
 23c:	00e00193          	li	gp,14
 240:	00000213          	li	tp,0
 244:	fff00093          	li	ra,-1
 248:	00000113          	li	sp,0
 24c:	00000013          	nop
 250:	00000013          	nop
 254:	1820da63          	bge	ra,sp,3e8 <fail>
 258:	00120213          	add	tp,tp,1 # 1 <_start+0x1>
 25c:	00200293          	li	t0,2
 260:	fe5212e3          	bne	tp,t0,244 <test_14+0x8>

00000264 <test_15>:
 264:	00f00193          	li	gp,15
 268:	00000213          	li	tp,0
 26c:	fff00093          	li	ra,-1
 270:	00000013          	nop
 274:	00000113          	li	sp,0
 278:	1620d863          	bge	ra,sp,3e8 <fail>
 27c:	00120213          	add	tp,tp,1 # 1 <_start+0x1>
 280:	00200293          	li	t0,2
 284:	fe5214e3          	bne	tp,t0,26c <test_15+0x8>

00000288 <test_16>:
 288:	01000193          	li	gp,16
 28c:	00000213          	li	tp,0
 290:	fff00093          	li	ra,-1
 294:	00000013          	nop
 298:	00000113          	li	sp,0
 29c:	00000013          	nop
 2a0:	1420d463          	bge	ra,sp,3e8 <fail>
 2a4:	00120213          	add	tp,tp,1 # 1 <_start+0x1>
 2a8:	00200293          	li	t0,2
 2ac:	fe5212e3          	bne	tp,t0,290 <test_16+0x8>

000002b0 <test_17>:
 2b0:	01100193          	li	gp,17
 2b4:	00000213          	li	tp,0
 2b8:	fff00093          	li	ra,-1
 2bc:	00000013          	nop
 2c0:	00000013          	nop
 2c4:	00000113          	li	sp,0
 2c8:	1220d063          	bge	ra,sp,3e8 <fail>
 2cc:	00120213          	add	tp,tp,1 # 1 <_start+0x1>
 2d0:	00200293          	li	t0,2
 2d4:	fe5212e3          	bne	tp,t0,2b8 <test_17+0x8>

000002d8 <test_18>:
 2d8:	01200193          	li	gp,18
 2dc:	00000213          	li	tp,0
 2e0:	fff00093          	li	ra,-1
 2e4:	00000113          	li	sp,0
 2e8:	1020d063          	bge	ra,sp,3e8 <fail>
 2ec:	00120213          	add	tp,tp,1 # 1 <_start+0x1>
 2f0:	00200293          	li	t0,2
 2f4:	fe5216e3          	bne	tp,t0,2e0 <test_18+0x8>

000002f8 <test_19>:
 2f8:	01300193          	li	gp,19
 2fc:	00000213          	li	tp,0
 300:	fff00093          	li	ra,-1
 304:	00000113          	li	sp,0
 308:	00000013          	nop
 30c:	0c20de63          	bge	ra,sp,3e8 <fail>
 310:	00120213          	add	tp,tp,1 # 1 <_start+0x1>
 314:	00200293          	li	t0,2
 318:	fe5214e3          	bne	tp,t0,300 <test_19+0x8>

0000031c <test_20>:
 31c:	01400193          	li	gp,20
 320:	00000213          	li	tp,0
 324:	fff00093          	li	ra,-1
 328:	00000113          	li	sp,0
 32c:	00000013          	nop
 330:	00000013          	nop
 334:	0a20da63          	bge	ra,sp,3e8 <fail>
 338:	00120213          	add	tp,tp,1 # 1 <_start+0x1>
 33c:	00200293          	li	t0,2
 340:	fe5212e3          	bne	tp,t0,324 <test_20+0x8>

00000344 <test_21>:
 344:	01500193          	li	gp,21
 348:	00000213          	li	tp,0
 34c:	fff00093          	li	ra,-1
 350:	00000013          	nop
 354:	00000113          	li	sp,0
 358:	0820d863          	bge	ra,sp,3e8 <fail>
 35c:	00120213          	add	tp,tp,1 # 1 <_start+0x1>
 360:	00200293          	li	t0,2
 364:	fe5214e3          	bne	tp,t0,34c <test_21+0x8>

00000368 <test_22>:
 368:	01600193          	li	gp,22
 36c:	00000213          	li	tp,0
 370:	fff00093          	li	ra,-1
 374:	00000013          	nop
 378:	00000113          	li	sp,0
 37c:	00000013          	nop
 380:	0620d463          	bge	ra,sp,3e8 <fail>
 384:	00120213          	add	tp,tp,1 # 1 <_start+0x1>
 388:	00200293          	li	t0,2
 38c:	fe5212e3          	bne	tp,t0,370 <test_22+0x8>

00000390 <test_23>:
 390:	01700193          	li	gp,23
 394:	00000213          	li	tp,0
 398:	fff00093          	li	ra,-1
 39c:	00000013          	nop
 3a0:	00000013          	nop
 3a4:	00000113          	li	sp,0
 3a8:	0420d063          	bge	ra,sp,3e8 <fail>
 3ac:	00120213          	add	tp,tp,1 # 1 <_start+0x1>
 3b0:	00200293          	li	t0,2
 3b4:	fe5212e3          	bne	tp,t0,398 <test_23+0x8>

000003b8 <test_24>:
 3b8:	01800193          	li	gp,24
 3bc:	00100093          	li	ra,1
 3c0:	0000da63          	bgez	ra,3d4 <test_24+0x1c>
 3c4:	00108093          	add	ra,ra,1
 3c8:	00108093          	add	ra,ra,1
 3cc:	00108093          	add	ra,ra,1
 3d0:	00108093          	add	ra,ra,1
 3d4:	00108093          	add	ra,ra,1
 3d8:	00108093          	add	ra,ra,1
 3dc:	00300393          	li	t2,3
 3e0:	00709463          	bne	ra,t2,3e8 <fail>
 3e4:	02301263          	bne	zero,gp,408 <pass>

000003e8 <fail>:
 3e8:	0ff0000f          	fence
 3ec:	04e00513          	li	a0,78
 3f0:	fea00fa3          	sb	a0,-1(zero) # ffffffff <_end+0xffffdfff>
 3f4:	06f00513          	li	a0,111
 3f8:	fea00fa3          	sb	a0,-1(zero) # ffffffff <_end+0xffffdfff>
 3fc:	00a00513          	li	a0,10
 400:	fea00fa3          	sb	a0,-1(zero) # ffffffff <_end+0xffffdfff>
 404:	c0001073          	unimp

00000408 <pass>:
 408:	0ff0000f          	fence
 40c:	04f00513          	li	a0,79
 410:	fea00fa3          	sb	a0,-1(zero) # ffffffff <_end+0xffffdfff>
 414:	06b00513          	li	a0,107
 418:	fea00fa3          	sb	a0,-1(zero) # ffffffff <_end+0xffffdfff>
 41c:	00a00513          	li	a0,10
 420:	fea00fa3          	sb	a0,-1(zero) # ffffffff <_end+0xffffdfff>
 424:	00100193          	li	gp,1
 428:	c0001073          	unimp
 42c:	c0001073          	unimp
	...
