
bgeu.elf:     file format elf32-littleriscv


Disassembly of section .text.init:

00000000 <_start>:
   0:	0500006f          	j	50 <reset_vector>

00000004 <trap_vector>:
   4:	34202f73          	csrr	t5,mcause
   8:	00800f93          	li	t6,8
   c:	03ff0863          	beq	t5,t6,3c <write_tohost>
  10:	00900f93          	li	t6,9
  14:	03ff0463          	beq	t5,t6,3c <write_tohost>
  18:	00b00f93          	li	t6,11
  1c:	03ff0063          	beq	t5,t6,3c <write_tohost>
  20:	00000f13          	li	t5,0
  24:	000f0463          	beqz	t5,2c <trap_vector+0x28>
  28:	000f0067          	jr	t5
  2c:	34202f73          	csrr	t5,mcause
  30:	000f5463          	bgez	t5,38 <handle_exception>
  34:	0040006f          	j	38 <handle_exception>

00000038 <handle_exception>:
  38:	5391e193          	or	gp,gp,1337

0000003c <write_tohost>:
  3c:	00001f17          	auipc	t5,0x1
  40:	fc3f2223          	sw	gp,-60(t5) # 1000 <tohost>
  44:	00001f17          	auipc	t5,0x1
  48:	fc0f2023          	sw	zero,-64(t5) # 1004 <tohost+0x4>
  4c:	ff1ff06f          	j	3c <write_tohost>

00000050 <reset_vector>:
  50:	00000093          	li	ra,0
  54:	00000113          	li	sp,0
  58:	00000193          	li	gp,0
  5c:	00000213          	li	tp,0
  60:	00000293          	li	t0,0
  64:	00000313          	li	t1,0
  68:	00000393          	li	t2,0
  6c:	00000413          	li	s0,0
  70:	00000493          	li	s1,0
  74:	00000513          	li	a0,0
  78:	00000593          	li	a1,0
  7c:	00000613          	li	a2,0
  80:	00000693          	li	a3,0
  84:	00000713          	li	a4,0
  88:	00000793          	li	a5,0
  8c:	00000813          	li	a6,0
  90:	00000893          	li	a7,0
  94:	00000913          	li	s2,0
  98:	00000993          	li	s3,0
  9c:	00000a13          	li	s4,0
  a0:	00000a93          	li	s5,0
  a4:	00000b13          	li	s6,0
  a8:	00000b93          	li	s7,0
  ac:	00000c13          	li	s8,0
  b0:	00000c93          	li	s9,0
  b4:	00000d13          	li	s10,0
  b8:	00000d93          	li	s11,0
  bc:	00000e13          	li	t3,0
  c0:	00000e93          	li	t4,0
  c4:	00000f13          	li	t5,0
  c8:	00000f93          	li	t6,0
  cc:	f1402573          	csrr	a0,mhartid
  d0:	00051063          	bnez	a0,d0 <reset_vector+0x80>
  d4:	00000297          	auipc	t0,0x0
  d8:	01028293          	add	t0,t0,16 # e4 <reset_vector+0x94>
  dc:	30529073          	csrw	mtvec,t0
  e0:	74445073          	csrw	0x744,8
  e4:	00000297          	auipc	t0,0x0
  e8:	01028293          	add	t0,t0,16 # f4 <reset_vector+0xa4>
  ec:	30529073          	csrw	mtvec,t0
  f0:	18005073          	csrw	satp,0
  f4:	00000297          	auipc	t0,0x0
  f8:	02028293          	add	t0,t0,32 # 114 <reset_vector+0xc4>
  fc:	30529073          	csrw	mtvec,t0
 100:	800002b7          	lui	t0,0x80000
 104:	fff28293          	add	t0,t0,-1 # 7fffffff <_end+0x7fffdfff>
 108:	3b029073          	csrw	pmpaddr0,t0
 10c:	01f00293          	li	t0,31
 110:	3a029073          	csrw	pmpcfg0,t0
 114:	30405073          	csrw	mie,0
 118:	00000297          	auipc	t0,0x0
 11c:	01428293          	add	t0,t0,20 # 12c <reset_vector+0xdc>
 120:	30529073          	csrw	mtvec,t0
 124:	30205073          	csrw	medeleg,0
 128:	30305073          	csrw	mideleg,0
 12c:	00000193          	li	gp,0
 130:	00000297          	auipc	t0,0x0
 134:	ed428293          	add	t0,t0,-300 # 4 <trap_vector>
 138:	30529073          	csrw	mtvec,t0
 13c:	00100513          	li	a0,1
 140:	01f51513          	sll	a0,a0,0x1f
 144:	00054c63          	bltz	a0,15c <reset_vector+0x10c>
 148:	0ff0000f          	fence
 14c:	00100193          	li	gp,1
 150:	05d00893          	li	a7,93
 154:	00000513          	li	a0,0
 158:	00000073          	ecall
 15c:	00000293          	li	t0,0
 160:	00028a63          	beqz	t0,174 <reset_vector+0x124>
 164:	10529073          	csrw	stvec,t0
 168:	0000b2b7          	lui	t0,0xb
 16c:	10928293          	add	t0,t0,265 # b109 <_end+0x9109>
 170:	30229073          	csrw	medeleg,t0
 174:	30005073          	csrw	mstatus,0
 178:	00000297          	auipc	t0,0x0
 17c:	01428293          	add	t0,t0,20 # 18c <test_2>
 180:	34129073          	csrw	mepc,t0
 184:	f1402573          	csrr	a0,mhartid
 188:	30200073          	mret

0000018c <test_2>:
 18c:	00200193          	li	gp,2
 190:	00000093          	li	ra,0
 194:	00000113          	li	sp,0
 198:	0020f663          	bgeu	ra,sp,1a4 <test_2+0x18>
 19c:	34301263          	bne	zero,gp,4e0 <fail>
 1a0:	00301663          	bne	zero,gp,1ac <test_3>
 1a4:	fe20fee3          	bgeu	ra,sp,1a0 <test_2+0x14>
 1a8:	32301c63          	bne	zero,gp,4e0 <fail>

000001ac <test_3>:
 1ac:	00300193          	li	gp,3
 1b0:	00100093          	li	ra,1
 1b4:	00100113          	li	sp,1
 1b8:	0020f663          	bgeu	ra,sp,1c4 <test_3+0x18>
 1bc:	32301263          	bne	zero,gp,4e0 <fail>
 1c0:	00301663          	bne	zero,gp,1cc <test_4>
 1c4:	fe20fee3          	bgeu	ra,sp,1c0 <test_3+0x14>
 1c8:	30301c63          	bne	zero,gp,4e0 <fail>

000001cc <test_4>:
 1cc:	00400193          	li	gp,4
 1d0:	fff00093          	li	ra,-1
 1d4:	fff00113          	li	sp,-1
 1d8:	0020f663          	bgeu	ra,sp,1e4 <test_4+0x18>
 1dc:	30301263          	bne	zero,gp,4e0 <fail>
 1e0:	00301663          	bne	zero,gp,1ec <test_5>
 1e4:	fe20fee3          	bgeu	ra,sp,1e0 <test_4+0x14>
 1e8:	2e301c63          	bne	zero,gp,4e0 <fail>

000001ec <test_5>:
 1ec:	00500193          	li	gp,5
 1f0:	00100093          	li	ra,1
 1f4:	00000113          	li	sp,0
 1f8:	0020f663          	bgeu	ra,sp,204 <test_5+0x18>
 1fc:	2e301263          	bne	zero,gp,4e0 <fail>
 200:	00301663          	bne	zero,gp,20c <test_6>
 204:	fe20fee3          	bgeu	ra,sp,200 <test_5+0x14>
 208:	2c301c63          	bne	zero,gp,4e0 <fail>

0000020c <test_6>:
 20c:	00600193          	li	gp,6
 210:	fff00093          	li	ra,-1
 214:	ffe00113          	li	sp,-2
 218:	0020f663          	bgeu	ra,sp,224 <test_6+0x18>
 21c:	2c301263          	bne	zero,gp,4e0 <fail>
 220:	00301663          	bne	zero,gp,22c <test_7>
 224:	fe20fee3          	bgeu	ra,sp,220 <test_6+0x14>
 228:	2a301c63          	bne	zero,gp,4e0 <fail>

0000022c <test_7>:
 22c:	00700193          	li	gp,7
 230:	fff00093          	li	ra,-1
 234:	00000113          	li	sp,0
 238:	0020f663          	bgeu	ra,sp,244 <test_7+0x18>
 23c:	2a301263          	bne	zero,gp,4e0 <fail>
 240:	00301663          	bne	zero,gp,24c <test_8>
 244:	fe20fee3          	bgeu	ra,sp,240 <test_7+0x14>
 248:	28301c63          	bne	zero,gp,4e0 <fail>

0000024c <test_8>:
 24c:	00800193          	li	gp,8
 250:	00000093          	li	ra,0
 254:	00100113          	li	sp,1
 258:	0020f463          	bgeu	ra,sp,260 <test_8+0x14>
 25c:	00301463          	bne	zero,gp,264 <test_8+0x18>
 260:	28301063          	bne	zero,gp,4e0 <fail>
 264:	fe20fee3          	bgeu	ra,sp,260 <test_8+0x14>

00000268 <test_9>:
 268:	00900193          	li	gp,9
 26c:	ffe00093          	li	ra,-2
 270:	fff00113          	li	sp,-1
 274:	0020f463          	bgeu	ra,sp,27c <test_9+0x14>
 278:	00301463          	bne	zero,gp,280 <test_9+0x18>
 27c:	26301263          	bne	zero,gp,4e0 <fail>
 280:	fe20fee3          	bgeu	ra,sp,27c <test_9+0x14>

00000284 <test_10>:
 284:	00a00193          	li	gp,10
 288:	00000093          	li	ra,0
 28c:	fff00113          	li	sp,-1
 290:	0020f463          	bgeu	ra,sp,298 <test_10+0x14>
 294:	00301463          	bne	zero,gp,29c <test_10+0x18>
 298:	24301463          	bne	zero,gp,4e0 <fail>
 29c:	fe20fee3          	bgeu	ra,sp,298 <test_10+0x14>

000002a0 <test_11>:
 2a0:	00b00193          	li	gp,11
 2a4:	800000b7          	lui	ra,0x80000
 2a8:	fff08093          	add	ra,ra,-1 # 7fffffff <_end+0x7fffdfff>
 2ac:	80000137          	lui	sp,0x80000
 2b0:	0020f463          	bgeu	ra,sp,2b8 <test_11+0x18>
 2b4:	00301463          	bne	zero,gp,2bc <test_11+0x1c>
 2b8:	22301463          	bne	zero,gp,4e0 <fail>
 2bc:	fe20fee3          	bgeu	ra,sp,2b8 <test_11+0x18>

000002c0 <test_12>:
 2c0:	00c00193          	li	gp,12
 2c4:	00000213          	li	tp,0
 2c8:	f00000b7          	lui	ra,0xf0000
 2cc:	fff08093          	add	ra,ra,-1 # efffffff <_end+0xefffdfff>
 2d0:	f0000137          	lui	sp,0xf0000
 2d4:	2020f663          	bgeu	ra,sp,4e0 <fail>
 2d8:	00120213          	add	tp,tp,1 # 1 <_start+0x1>
 2dc:	00200293          	li	t0,2
 2e0:	fe5214e3          	bne	tp,t0,2c8 <test_12+0x8>

000002e4 <test_13>:
 2e4:	00d00193          	li	gp,13
 2e8:	00000213          	li	tp,0
 2ec:	f00000b7          	lui	ra,0xf0000
 2f0:	fff08093          	add	ra,ra,-1 # efffffff <_end+0xefffdfff>
 2f4:	f0000137          	lui	sp,0xf0000
 2f8:	00000013          	nop
 2fc:	1e20f263          	bgeu	ra,sp,4e0 <fail>
 300:	00120213          	add	tp,tp,1 # 1 <_start+0x1>
 304:	00200293          	li	t0,2
 308:	fe5212e3          	bne	tp,t0,2ec <test_13+0x8>

0000030c <test_14>:
 30c:	00e00193          	li	gp,14
 310:	00000213          	li	tp,0
 314:	f00000b7          	lui	ra,0xf0000
 318:	fff08093          	add	ra,ra,-1 # efffffff <_end+0xefffdfff>
 31c:	f0000137          	lui	sp,0xf0000
 320:	00000013          	nop
 324:	00000013          	nop
 328:	1a20fc63          	bgeu	ra,sp,4e0 <fail>
 32c:	00120213          	add	tp,tp,1 # 1 <_start+0x1>
 330:	00200293          	li	t0,2
 334:	fe5210e3          	bne	tp,t0,314 <test_14+0x8>

00000338 <test_15>:
 338:	00f00193          	li	gp,15
 33c:	00000213          	li	tp,0
 340:	f00000b7          	lui	ra,0xf0000
 344:	fff08093          	add	ra,ra,-1 # efffffff <_end+0xefffdfff>
 348:	00000013          	nop
 34c:	f0000137          	lui	sp,0xf0000
 350:	1820f863          	bgeu	ra,sp,4e0 <fail>
 354:	00120213          	add	tp,tp,1 # 1 <_start+0x1>
 358:	00200293          	li	t0,2
 35c:	fe5212e3          	bne	tp,t0,340 <test_15+0x8>

00000360 <test_16>:
 360:	01000193          	li	gp,16
 364:	00000213          	li	tp,0
 368:	f00000b7          	lui	ra,0xf0000
 36c:	fff08093          	add	ra,ra,-1 # efffffff <_end+0xefffdfff>
 370:	00000013          	nop
 374:	f0000137          	lui	sp,0xf0000
 378:	00000013          	nop
 37c:	1620f263          	bgeu	ra,sp,4e0 <fail>
 380:	00120213          	add	tp,tp,1 # 1 <_start+0x1>
 384:	00200293          	li	t0,2
 388:	fe5210e3          	bne	tp,t0,368 <test_16+0x8>

0000038c <test_17>:
 38c:	01100193          	li	gp,17
 390:	00000213          	li	tp,0
 394:	f00000b7          	lui	ra,0xf0000
 398:	fff08093          	add	ra,ra,-1 # efffffff <_end+0xefffdfff>
 39c:	00000013          	nop
 3a0:	00000013          	nop
 3a4:	f0000137          	lui	sp,0xf0000
 3a8:	1220fc63          	bgeu	ra,sp,4e0 <fail>
 3ac:	00120213          	add	tp,tp,1 # 1 <_start+0x1>
 3b0:	00200293          	li	t0,2
 3b4:	fe5210e3          	bne	tp,t0,394 <test_17+0x8>

000003b8 <test_18>:
 3b8:	01200193          	li	gp,18
 3bc:	00000213          	li	tp,0
 3c0:	f00000b7          	lui	ra,0xf0000
 3c4:	fff08093          	add	ra,ra,-1 # efffffff <_end+0xefffdfff>
 3c8:	f0000137          	lui	sp,0xf0000
 3cc:	1020fa63          	bgeu	ra,sp,4e0 <fail>
 3d0:	00120213          	add	tp,tp,1 # 1 <_start+0x1>
 3d4:	00200293          	li	t0,2
 3d8:	fe5214e3          	bne	tp,t0,3c0 <test_18+0x8>

000003dc <test_19>:
 3dc:	01300193          	li	gp,19
 3e0:	00000213          	li	tp,0
 3e4:	f00000b7          	lui	ra,0xf0000
 3e8:	fff08093          	add	ra,ra,-1 # efffffff <_end+0xefffdfff>
 3ec:	f0000137          	lui	sp,0xf0000
 3f0:	00000013          	nop
 3f4:	0e20f663          	bgeu	ra,sp,4e0 <fail>
 3f8:	00120213          	add	tp,tp,1 # 1 <_start+0x1>
 3fc:	00200293          	li	t0,2
 400:	fe5212e3          	bne	tp,t0,3e4 <test_19+0x8>

00000404 <test_20>:
 404:	01400193          	li	gp,20
 408:	00000213          	li	tp,0
 40c:	f00000b7          	lui	ra,0xf0000
 410:	fff08093          	add	ra,ra,-1 # efffffff <_end+0xefffdfff>
 414:	f0000137          	lui	sp,0xf0000
 418:	00000013          	nop
 41c:	00000013          	nop
 420:	0c20f063          	bgeu	ra,sp,4e0 <fail>
 424:	00120213          	add	tp,tp,1 # 1 <_start+0x1>
 428:	00200293          	li	t0,2
 42c:	fe5210e3          	bne	tp,t0,40c <test_20+0x8>

00000430 <test_21>:
 430:	01500193          	li	gp,21
 434:	00000213          	li	tp,0
 438:	f00000b7          	lui	ra,0xf0000
 43c:	fff08093          	add	ra,ra,-1 # efffffff <_end+0xefffdfff>
 440:	00000013          	nop
 444:	f0000137          	lui	sp,0xf0000
 448:	0820fc63          	bgeu	ra,sp,4e0 <fail>
 44c:	00120213          	add	tp,tp,1 # 1 <_start+0x1>
 450:	00200293          	li	t0,2
 454:	fe5212e3          	bne	tp,t0,438 <test_21+0x8>

00000458 <test_22>:
 458:	01600193          	li	gp,22
 45c:	00000213          	li	tp,0
 460:	f00000b7          	lui	ra,0xf0000
 464:	fff08093          	add	ra,ra,-1 # efffffff <_end+0xefffdfff>
 468:	00000013          	nop
 46c:	f0000137          	lui	sp,0xf0000
 470:	00000013          	nop
 474:	0620f663          	bgeu	ra,sp,4e0 <fail>
 478:	00120213          	add	tp,tp,1 # 1 <_start+0x1>
 47c:	00200293          	li	t0,2
 480:	fe5210e3          	bne	tp,t0,460 <test_22+0x8>

00000484 <test_23>:
 484:	01700193          	li	gp,23
 488:	00000213          	li	tp,0
 48c:	f00000b7          	lui	ra,0xf0000
 490:	fff08093          	add	ra,ra,-1 # efffffff <_end+0xefffdfff>
 494:	00000013          	nop
 498:	00000013          	nop
 49c:	f0000137          	lui	sp,0xf0000
 4a0:	0420f063          	bgeu	ra,sp,4e0 <fail>
 4a4:	00120213          	add	tp,tp,1 # 1 <_start+0x1>
 4a8:	00200293          	li	t0,2
 4ac:	fe5210e3          	bne	tp,t0,48c <test_23+0x8>

000004b0 <test_24>:
 4b0:	01800193          	li	gp,24
 4b4:	00100093          	li	ra,1
 4b8:	0000fa63          	bgeu	ra,zero,4cc <test_24+0x1c>
 4bc:	00108093          	add	ra,ra,1
 4c0:	00108093          	add	ra,ra,1
 4c4:	00108093          	add	ra,ra,1
 4c8:	00108093          	add	ra,ra,1
 4cc:	00108093          	add	ra,ra,1
 4d0:	00108093          	add	ra,ra,1
 4d4:	00300393          	li	t2,3
 4d8:	00709463          	bne	ra,t2,4e0 <fail>
 4dc:	02301063          	bne	zero,gp,4fc <pass>

000004e0 <fail>:
 4e0:	0ff0000f          	fence
 4e4:	00018063          	beqz	gp,4e4 <fail+0x4>
 4e8:	00119193          	sll	gp,gp,0x1
 4ec:	0011e193          	or	gp,gp,1
 4f0:	05d00893          	li	a7,93
 4f4:	00018513          	mv	a0,gp
 4f8:	00000073          	ecall

000004fc <pass>:
 4fc:	0ff0000f          	fence
 500:	00100193          	li	gp,1
 504:	05d00893          	li	a7,93
 508:	00000513          	li	a0,0
 50c:	00000073          	ecall
 510:	c0001073          	unimp
	...
