
bltu.elf:     file format elf32-littleriscv


Disassembly of section .text.init:

00000000 <_start>:
   0:	0500006f          	j	50 <reset_vector>

00000004 <trap_vector>:
   4:	34202f73          	csrr	t5,mcause
   8:	00800f93          	li	t6,8
   c:	03ff0863          	beq	t5,t6,3c <write_tohost>
  10:	00900f93          	li	t6,9
  14:	03ff0463          	beq	t5,t6,3c <write_tohost>
  18:	00b00f93          	li	t6,11
  1c:	03ff0063          	beq	t5,t6,3c <write_tohost>
  20:	00000f13          	li	t5,0
  24:	000f0463          	beqz	t5,2c <trap_vector+0x28>
  28:	000f0067          	jr	t5
  2c:	34202f73          	csrr	t5,mcause
  30:	000f5463          	bgez	t5,38 <handle_exception>
  34:	0040006f          	j	38 <handle_exception>

00000038 <handle_exception>:
  38:	5391e193          	or	gp,gp,1337

0000003c <write_tohost>:
  3c:	00001f17          	auipc	t5,0x1
  40:	fc3f2223          	sw	gp,-60(t5) # 1000 <tohost>
  44:	00001f17          	auipc	t5,0x1
  48:	fc0f2023          	sw	zero,-64(t5) # 1004 <tohost+0x4>
  4c:	ff1ff06f          	j	3c <write_tohost>

00000050 <reset_vector>:
  50:	00000093          	li	ra,0
  54:	00000113          	li	sp,0
  58:	00000193          	li	gp,0
  5c:	00000213          	li	tp,0
  60:	00000293          	li	t0,0
  64:	00000313          	li	t1,0
  68:	00000393          	li	t2,0
  6c:	00000413          	li	s0,0
  70:	00000493          	li	s1,0
  74:	00000513          	li	a0,0
  78:	00000593          	li	a1,0
  7c:	00000613          	li	a2,0
  80:	00000693          	li	a3,0
  84:	00000713          	li	a4,0
  88:	00000793          	li	a5,0
  8c:	00000813          	li	a6,0
  90:	00000893          	li	a7,0
  94:	00000913          	li	s2,0
  98:	00000993          	li	s3,0
  9c:	00000a13          	li	s4,0
  a0:	00000a93          	li	s5,0
  a4:	00000b13          	li	s6,0
  a8:	00000b93          	li	s7,0
  ac:	00000c13          	li	s8,0
  b0:	00000c93          	li	s9,0
  b4:	00000d13          	li	s10,0
  b8:	00000d93          	li	s11,0
  bc:	00000e13          	li	t3,0
  c0:	00000e93          	li	t4,0
  c4:	00000f13          	li	t5,0
  c8:	00000f93          	li	t6,0
  cc:	f1402573          	csrr	a0,mhartid
  d0:	00051063          	bnez	a0,d0 <reset_vector+0x80>
  d4:	00000297          	auipc	t0,0x0
  d8:	01028293          	add	t0,t0,16 # e4 <reset_vector+0x94>
  dc:	30529073          	csrw	mtvec,t0
  e0:	74445073          	csrw	0x744,8
  e4:	00000297          	auipc	t0,0x0
  e8:	01028293          	add	t0,t0,16 # f4 <reset_vector+0xa4>
  ec:	30529073          	csrw	mtvec,t0
  f0:	18005073          	csrw	satp,0
  f4:	00000297          	auipc	t0,0x0
  f8:	02028293          	add	t0,t0,32 # 114 <reset_vector+0xc4>
  fc:	30529073          	csrw	mtvec,t0
 100:	800002b7          	lui	t0,0x80000
 104:	fff28293          	add	t0,t0,-1 # 7fffffff <_end+0x7fffdfff>
 108:	3b029073          	csrw	pmpaddr0,t0
 10c:	01f00293          	li	t0,31
 110:	3a029073          	csrw	pmpcfg0,t0
 114:	30405073          	csrw	mie,0
 118:	00000297          	auipc	t0,0x0
 11c:	01428293          	add	t0,t0,20 # 12c <reset_vector+0xdc>
 120:	30529073          	csrw	mtvec,t0
 124:	30205073          	csrw	medeleg,0
 128:	30305073          	csrw	mideleg,0
 12c:	00000193          	li	gp,0
 130:	00000297          	auipc	t0,0x0
 134:	ed428293          	add	t0,t0,-300 # 4 <trap_vector>
 138:	30529073          	csrw	mtvec,t0
 13c:	00100513          	li	a0,1
 140:	01f51513          	sll	a0,a0,0x1f
 144:	00054c63          	bltz	a0,15c <reset_vector+0x10c>
 148:	0ff0000f          	fence
 14c:	00100193          	li	gp,1
 150:	05d00893          	li	a7,93
 154:	00000513          	li	a0,0
 158:	00000073          	ecall
 15c:	00000293          	li	t0,0
 160:	00028a63          	beqz	t0,174 <reset_vector+0x124>
 164:	10529073          	csrw	stvec,t0
 168:	0000b2b7          	lui	t0,0xb
 16c:	10928293          	add	t0,t0,265 # b109 <_end+0x9109>
 170:	30229073          	csrw	medeleg,t0
 174:	30005073          	csrw	mstatus,0
 178:	00000297          	auipc	t0,0x0
 17c:	01428293          	add	t0,t0,20 # 18c <test_2>
 180:	34129073          	csrw	mepc,t0
 184:	f1402573          	csrr	a0,mhartid
 188:	30200073          	mret

0000018c <test_2>:
 18c:	00200193          	li	gp,2
 190:	00000093          	li	ra,0
 194:	00100113          	li	sp,1
 198:	0020e663          	bltu	ra,sp,1a4 <test_2+0x18>
 19c:	2e301263          	bne	zero,gp,480 <fail>
 1a0:	00301663          	bne	zero,gp,1ac <test_3>
 1a4:	fe20eee3          	bltu	ra,sp,1a0 <test_2+0x14>
 1a8:	2c301c63          	bne	zero,gp,480 <fail>

000001ac <test_3>:
 1ac:	00300193          	li	gp,3
 1b0:	ffe00093          	li	ra,-2
 1b4:	fff00113          	li	sp,-1
 1b8:	0020e663          	bltu	ra,sp,1c4 <test_3+0x18>
 1bc:	2c301263          	bne	zero,gp,480 <fail>
 1c0:	00301663          	bne	zero,gp,1cc <test_4>
 1c4:	fe20eee3          	bltu	ra,sp,1c0 <test_3+0x14>
 1c8:	2a301c63          	bne	zero,gp,480 <fail>

000001cc <test_4>:
 1cc:	00400193          	li	gp,4
 1d0:	00000093          	li	ra,0
 1d4:	fff00113          	li	sp,-1
 1d8:	0020e663          	bltu	ra,sp,1e4 <test_4+0x18>
 1dc:	2a301263          	bne	zero,gp,480 <fail>
 1e0:	00301663          	bne	zero,gp,1ec <test_5>
 1e4:	fe20eee3          	bltu	ra,sp,1e0 <test_4+0x14>
 1e8:	28301c63          	bne	zero,gp,480 <fail>

000001ec <test_5>:
 1ec:	00500193          	li	gp,5
 1f0:	00100093          	li	ra,1
 1f4:	00000113          	li	sp,0
 1f8:	0020e463          	bltu	ra,sp,200 <test_5+0x14>
 1fc:	00301463          	bne	zero,gp,204 <test_5+0x18>
 200:	28301063          	bne	zero,gp,480 <fail>
 204:	fe20eee3          	bltu	ra,sp,200 <test_5+0x14>

00000208 <test_6>:
 208:	00600193          	li	gp,6
 20c:	fff00093          	li	ra,-1
 210:	ffe00113          	li	sp,-2
 214:	0020e463          	bltu	ra,sp,21c <test_6+0x14>
 218:	00301463          	bne	zero,gp,220 <test_6+0x18>
 21c:	26301263          	bne	zero,gp,480 <fail>
 220:	fe20eee3          	bltu	ra,sp,21c <test_6+0x14>

00000224 <test_7>:
 224:	00700193          	li	gp,7
 228:	fff00093          	li	ra,-1
 22c:	00000113          	li	sp,0
 230:	0020e463          	bltu	ra,sp,238 <test_7+0x14>
 234:	00301463          	bne	zero,gp,23c <test_7+0x18>
 238:	24301463          	bne	zero,gp,480 <fail>
 23c:	fe20eee3          	bltu	ra,sp,238 <test_7+0x14>

00000240 <test_8>:
 240:	00800193          	li	gp,8
 244:	800000b7          	lui	ra,0x80000
 248:	80000137          	lui	sp,0x80000
 24c:	fff10113          	add	sp,sp,-1 # 7fffffff <_end+0x7fffdfff>
 250:	0020e463          	bltu	ra,sp,258 <test_8+0x18>
 254:	00301463          	bne	zero,gp,25c <test_8+0x1c>
 258:	22301463          	bne	zero,gp,480 <fail>
 25c:	fe20eee3          	bltu	ra,sp,258 <test_8+0x18>

00000260 <test_9>:
 260:	00900193          	li	gp,9
 264:	00000213          	li	tp,0
 268:	f00000b7          	lui	ra,0xf0000
 26c:	f0000137          	lui	sp,0xf0000
 270:	fff10113          	add	sp,sp,-1 # efffffff <_end+0xefffdfff>
 274:	2020e663          	bltu	ra,sp,480 <fail>
 278:	00120213          	add	tp,tp,1 # 1 <_start+0x1>
 27c:	00200293          	li	t0,2
 280:	fe5214e3          	bne	tp,t0,268 <test_9+0x8>

00000284 <test_10>:
 284:	00a00193          	li	gp,10
 288:	00000213          	li	tp,0
 28c:	f00000b7          	lui	ra,0xf0000
 290:	f0000137          	lui	sp,0xf0000
 294:	fff10113          	add	sp,sp,-1 # efffffff <_end+0xefffdfff>
 298:	00000013          	nop
 29c:	1e20e263          	bltu	ra,sp,480 <fail>
 2a0:	00120213          	add	tp,tp,1 # 1 <_start+0x1>
 2a4:	00200293          	li	t0,2
 2a8:	fe5212e3          	bne	tp,t0,28c <test_10+0x8>

000002ac <test_11>:
 2ac:	00b00193          	li	gp,11
 2b0:	00000213          	li	tp,0
 2b4:	f00000b7          	lui	ra,0xf0000
 2b8:	f0000137          	lui	sp,0xf0000
 2bc:	fff10113          	add	sp,sp,-1 # efffffff <_end+0xefffdfff>
 2c0:	00000013          	nop
 2c4:	00000013          	nop
 2c8:	1a20ec63          	bltu	ra,sp,480 <fail>
 2cc:	00120213          	add	tp,tp,1 # 1 <_start+0x1>
 2d0:	00200293          	li	t0,2
 2d4:	fe5210e3          	bne	tp,t0,2b4 <test_11+0x8>

000002d8 <test_12>:
 2d8:	00c00193          	li	gp,12
 2dc:	00000213          	li	tp,0
 2e0:	f00000b7          	lui	ra,0xf0000
 2e4:	00000013          	nop
 2e8:	f0000137          	lui	sp,0xf0000
 2ec:	fff10113          	add	sp,sp,-1 # efffffff <_end+0xefffdfff>
 2f0:	1820e863          	bltu	ra,sp,480 <fail>
 2f4:	00120213          	add	tp,tp,1 # 1 <_start+0x1>
 2f8:	00200293          	li	t0,2
 2fc:	fe5212e3          	bne	tp,t0,2e0 <test_12+0x8>

00000300 <test_13>:
 300:	00d00193          	li	gp,13
 304:	00000213          	li	tp,0
 308:	f00000b7          	lui	ra,0xf0000
 30c:	00000013          	nop
 310:	f0000137          	lui	sp,0xf0000
 314:	fff10113          	add	sp,sp,-1 # efffffff <_end+0xefffdfff>
 318:	00000013          	nop
 31c:	1620e263          	bltu	ra,sp,480 <fail>
 320:	00120213          	add	tp,tp,1 # 1 <_start+0x1>
 324:	00200293          	li	t0,2
 328:	fe5210e3          	bne	tp,t0,308 <test_13+0x8>

0000032c <test_14>:
 32c:	00e00193          	li	gp,14
 330:	00000213          	li	tp,0
 334:	f00000b7          	lui	ra,0xf0000
 338:	00000013          	nop
 33c:	00000013          	nop
 340:	f0000137          	lui	sp,0xf0000
 344:	fff10113          	add	sp,sp,-1 # efffffff <_end+0xefffdfff>
 348:	1220ec63          	bltu	ra,sp,480 <fail>
 34c:	00120213          	add	tp,tp,1 # 1 <_start+0x1>
 350:	00200293          	li	t0,2
 354:	fe5210e3          	bne	tp,t0,334 <test_14+0x8>

00000358 <test_15>:
 358:	00f00193          	li	gp,15
 35c:	00000213          	li	tp,0
 360:	f00000b7          	lui	ra,0xf0000
 364:	f0000137          	lui	sp,0xf0000
 368:	fff10113          	add	sp,sp,-1 # efffffff <_end+0xefffdfff>
 36c:	1020ea63          	bltu	ra,sp,480 <fail>
 370:	00120213          	add	tp,tp,1 # 1 <_start+0x1>
 374:	00200293          	li	t0,2
 378:	fe5214e3          	bne	tp,t0,360 <test_15+0x8>

0000037c <test_16>:
 37c:	01000193          	li	gp,16
 380:	00000213          	li	tp,0
 384:	f00000b7          	lui	ra,0xf0000
 388:	f0000137          	lui	sp,0xf0000
 38c:	fff10113          	add	sp,sp,-1 # efffffff <_end+0xefffdfff>
 390:	00000013          	nop
 394:	0e20e663          	bltu	ra,sp,480 <fail>
 398:	00120213          	add	tp,tp,1 # 1 <_start+0x1>
 39c:	00200293          	li	t0,2
 3a0:	fe5212e3          	bne	tp,t0,384 <test_16+0x8>

000003a4 <test_17>:
 3a4:	01100193          	li	gp,17
 3a8:	00000213          	li	tp,0
 3ac:	f00000b7          	lui	ra,0xf0000
 3b0:	f0000137          	lui	sp,0xf0000
 3b4:	fff10113          	add	sp,sp,-1 # efffffff <_end+0xefffdfff>
 3b8:	00000013          	nop
 3bc:	00000013          	nop
 3c0:	0c20e063          	bltu	ra,sp,480 <fail>
 3c4:	00120213          	add	tp,tp,1 # 1 <_start+0x1>
 3c8:	00200293          	li	t0,2
 3cc:	fe5210e3          	bne	tp,t0,3ac <test_17+0x8>

000003d0 <test_18>:
 3d0:	01200193          	li	gp,18
 3d4:	00000213          	li	tp,0
 3d8:	f00000b7          	lui	ra,0xf0000
 3dc:	00000013          	nop
 3e0:	f0000137          	lui	sp,0xf0000
 3e4:	fff10113          	add	sp,sp,-1 # efffffff <_end+0xefffdfff>
 3e8:	0820ec63          	bltu	ra,sp,480 <fail>
 3ec:	00120213          	add	tp,tp,1 # 1 <_start+0x1>
 3f0:	00200293          	li	t0,2
 3f4:	fe5212e3          	bne	tp,t0,3d8 <test_18+0x8>

000003f8 <test_19>:
 3f8:	01300193          	li	gp,19
 3fc:	00000213          	li	tp,0
 400:	f00000b7          	lui	ra,0xf0000
 404:	00000013          	nop
 408:	f0000137          	lui	sp,0xf0000
 40c:	fff10113          	add	sp,sp,-1 # efffffff <_end+0xefffdfff>
 410:	00000013          	nop
 414:	0620e663          	bltu	ra,sp,480 <fail>
 418:	00120213          	add	tp,tp,1 # 1 <_start+0x1>
 41c:	00200293          	li	t0,2
 420:	fe5210e3          	bne	tp,t0,400 <test_19+0x8>

00000424 <test_20>:
 424:	01400193          	li	gp,20
 428:	00000213          	li	tp,0
 42c:	f00000b7          	lui	ra,0xf0000
 430:	00000013          	nop
 434:	00000013          	nop
 438:	f0000137          	lui	sp,0xf0000
 43c:	fff10113          	add	sp,sp,-1 # efffffff <_end+0xefffdfff>
 440:	0420e063          	bltu	ra,sp,480 <fail>
 444:	00120213          	add	tp,tp,1 # 1 <_start+0x1>
 448:	00200293          	li	t0,2
 44c:	fe5210e3          	bne	tp,t0,42c <test_20+0x8>

00000450 <test_21>:
 450:	01500193          	li	gp,21
 454:	00100093          	li	ra,1
 458:	00106a63          	bltu	zero,ra,46c <test_21+0x1c>
 45c:	00108093          	add	ra,ra,1 # f0000001 <_end+0xefffe001>
 460:	00108093          	add	ra,ra,1
 464:	00108093          	add	ra,ra,1
 468:	00108093          	add	ra,ra,1
 46c:	00108093          	add	ra,ra,1
 470:	00108093          	add	ra,ra,1
 474:	00300393          	li	t2,3
 478:	00709463          	bne	ra,t2,480 <fail>
 47c:	02301063          	bne	zero,gp,49c <pass>

00000480 <fail>:
 480:	0ff0000f          	fence
 484:	00018063          	beqz	gp,484 <fail+0x4>
 488:	00119193          	sll	gp,gp,0x1
 48c:	0011e193          	or	gp,gp,1
 490:	05d00893          	li	a7,93
 494:	00018513          	mv	a0,gp
 498:	00000073          	ecall

0000049c <pass>:
 49c:	0ff0000f          	fence
 4a0:	00100193          	li	gp,1
 4a4:	05d00893          	li	a7,93
 4a8:	00000513          	li	a0,0
 4ac:	00000073          	ecall
 4b0:	c0001073          	unimp
	...
