
lbu.elf:     file format elf32-littleriscv


Disassembly of section .text.init:

00000000 <_start>:
   0:	0040006f          	j	4 <reset_vector>

00000004 <reset_vector>:
   4:	00000093          	li	ra,0
   8:	00000113          	li	sp,0
   c:	00000193          	li	gp,0
  10:	00000213          	li	tp,0
  14:	00000293          	li	t0,0
  18:	00000313          	li	t1,0
  1c:	00000393          	li	t2,0
  20:	00000413          	li	s0,0
  24:	00000493          	li	s1,0
  28:	00000513          	li	a0,0
  2c:	00000593          	li	a1,0
  30:	00000613          	li	a2,0
  34:	00000693          	li	a3,0
  38:	00000713          	li	a4,0
  3c:	00000793          	li	a5,0
  40:	00000813          	li	a6,0
  44:	00000893          	li	a7,0
  48:	00000913          	li	s2,0
  4c:	00000993          	li	s3,0
  50:	00000a13          	li	s4,0
  54:	00000a93          	li	s5,0
  58:	00000b13          	li	s6,0
  5c:	00000b93          	li	s7,0
  60:	00000c13          	li	s8,0
  64:	00000c93          	li	s9,0
  68:	00000d13          	li	s10,0
  6c:	00000d93          	li	s11,0
  70:	00000e13          	li	t3,0
  74:	00000e93          	li	t4,0
  78:	00000f13          	li	t5,0
  7c:	00000f93          	li	t6,0
  80:	00000193          	li	gp,0
  84:	00100513          	li	a0,1
  88:	01f51513          	sll	a0,a0,0x1f
  8c:	02054263          	bltz	a0,b0 <reset_vector+0xac>
  90:	0ff0000f          	fence
  94:	04f00513          	li	a0,79
  98:	fea00fa3          	sb	a0,-1(zero) # ffffffff <_end+0xffffcfff>
  9c:	06b00513          	li	a0,107
  a0:	fea00fa3          	sb	a0,-1(zero) # ffffffff <_end+0xffffcfff>
  a4:	00a00513          	li	a0,10
  a8:	fea00fa3          	sb	a0,-1(zero) # ffffffff <_end+0xffffcfff>
  ac:	00100193          	li	gp,1
  b0:	30005073          	csrw	mstatus,0
  b4:	00000297          	auipc	t0,0x0
  b8:	01428293          	add	t0,t0,20 # c8 <test_2>
  bc:	34129073          	csrw	mepc,t0
  c0:	f1402573          	csrr	a0,mhartid
  c4:	30200073          	mret

000000c8 <test_2>:
  c8:	00200193          	li	gp,2
  cc:	0ff00793          	li	a5,255
  d0:	00002097          	auipc	ra,0x2
  d4:	f3008093          	add	ra,ra,-208 # 2000 <begin_signature>
  d8:	0000c703          	lbu	a4,0(ra)
  dc:	0ff00393          	li	t2,255
  e0:	24771a63          	bne	a4,t2,334 <fail>

000000e4 <test_3>:
  e4:	00300193          	li	gp,3
  e8:	00000793          	li	a5,0
  ec:	00002097          	auipc	ra,0x2
  f0:	f1408093          	add	ra,ra,-236 # 2000 <begin_signature>
  f4:	0010c703          	lbu	a4,1(ra)
  f8:	00000393          	li	t2,0
  fc:	22771c63          	bne	a4,t2,334 <fail>

00000100 <test_4>:
 100:	00400193          	li	gp,4
 104:	0f000793          	li	a5,240
 108:	00002097          	auipc	ra,0x2
 10c:	ef808093          	add	ra,ra,-264 # 2000 <begin_signature>
 110:	0020c703          	lbu	a4,2(ra)
 114:	0f000393          	li	t2,240
 118:	20771e63          	bne	a4,t2,334 <fail>

0000011c <test_5>:
 11c:	00500193          	li	gp,5
 120:	00f00793          	li	a5,15
 124:	00002097          	auipc	ra,0x2
 128:	edc08093          	add	ra,ra,-292 # 2000 <begin_signature>
 12c:	0030c703          	lbu	a4,3(ra)
 130:	00f00393          	li	t2,15
 134:	20771063          	bne	a4,t2,334 <fail>

00000138 <test_6>:
 138:	00600193          	li	gp,6
 13c:	0ff00793          	li	a5,255
 140:	00002097          	auipc	ra,0x2
 144:	ec308093          	add	ra,ra,-317 # 2003 <tdat4>
 148:	ffd0c703          	lbu	a4,-3(ra)
 14c:	0ff00393          	li	t2,255
 150:	1e771263          	bne	a4,t2,334 <fail>

00000154 <test_7>:
 154:	00700193          	li	gp,7
 158:	00000793          	li	a5,0
 15c:	00002097          	auipc	ra,0x2
 160:	ea708093          	add	ra,ra,-345 # 2003 <tdat4>
 164:	ffe0c703          	lbu	a4,-2(ra)
 168:	00000393          	li	t2,0
 16c:	1c771463          	bne	a4,t2,334 <fail>

00000170 <test_8>:
 170:	00800193          	li	gp,8
 174:	0f000793          	li	a5,240
 178:	00002097          	auipc	ra,0x2
 17c:	e8b08093          	add	ra,ra,-373 # 2003 <tdat4>
 180:	fff0c703          	lbu	a4,-1(ra)
 184:	0f000393          	li	t2,240
 188:	1a771663          	bne	a4,t2,334 <fail>

0000018c <test_9>:
 18c:	00900193          	li	gp,9
 190:	00f00793          	li	a5,15
 194:	00002097          	auipc	ra,0x2
 198:	e6f08093          	add	ra,ra,-401 # 2003 <tdat4>
 19c:	0000c703          	lbu	a4,0(ra)
 1a0:	00f00393          	li	t2,15
 1a4:	18771863          	bne	a4,t2,334 <fail>

000001a8 <test_10>:
 1a8:	00a00193          	li	gp,10
 1ac:	00002097          	auipc	ra,0x2
 1b0:	e5408093          	add	ra,ra,-428 # 2000 <begin_signature>
 1b4:	fe008093          	add	ra,ra,-32
 1b8:	0200c283          	lbu	t0,32(ra)
 1bc:	0ff00393          	li	t2,255
 1c0:	16729a63          	bne	t0,t2,334 <fail>

000001c4 <test_11>:
 1c4:	00b00193          	li	gp,11
 1c8:	00002097          	auipc	ra,0x2
 1cc:	e3808093          	add	ra,ra,-456 # 2000 <begin_signature>
 1d0:	ffa08093          	add	ra,ra,-6
 1d4:	0070c283          	lbu	t0,7(ra)
 1d8:	00000393          	li	t2,0
 1dc:	14729c63          	bne	t0,t2,334 <fail>

000001e0 <test_12>:
 1e0:	00c00193          	li	gp,12
 1e4:	00000213          	li	tp,0
 1e8:	00002097          	auipc	ra,0x2
 1ec:	e1908093          	add	ra,ra,-487 # 2001 <tdat2>
 1f0:	0010c703          	lbu	a4,1(ra)
 1f4:	00070313          	mv	t1,a4
 1f8:	0f000393          	li	t2,240
 1fc:	12731c63          	bne	t1,t2,334 <fail>
 200:	00120213          	add	tp,tp,1 # 1 <_start+0x1>
 204:	00200293          	li	t0,2
 208:	fe5210e3          	bne	tp,t0,1e8 <test_12+0x8>

0000020c <test_13>:
 20c:	00d00193          	li	gp,13
 210:	00000213          	li	tp,0
 214:	00002097          	auipc	ra,0x2
 218:	dee08093          	add	ra,ra,-530 # 2002 <tdat3>
 21c:	0010c703          	lbu	a4,1(ra)
 220:	00000013          	nop
 224:	00070313          	mv	t1,a4
 228:	00f00393          	li	t2,15
 22c:	10731463          	bne	t1,t2,334 <fail>
 230:	00120213          	add	tp,tp,1 # 1 <_start+0x1>
 234:	00200293          	li	t0,2
 238:	fc521ee3          	bne	tp,t0,214 <test_13+0x8>

0000023c <test_14>:
 23c:	00e00193          	li	gp,14
 240:	00000213          	li	tp,0
 244:	00002097          	auipc	ra,0x2
 248:	dbc08093          	add	ra,ra,-580 # 2000 <begin_signature>
 24c:	0010c703          	lbu	a4,1(ra)
 250:	00000013          	nop
 254:	00000013          	nop
 258:	00070313          	mv	t1,a4
 25c:	00000393          	li	t2,0
 260:	0c731a63          	bne	t1,t2,334 <fail>
 264:	00120213          	add	tp,tp,1 # 1 <_start+0x1>
 268:	00200293          	li	t0,2
 26c:	fc521ce3          	bne	tp,t0,244 <test_14+0x8>

00000270 <test_15>:
 270:	00f00193          	li	gp,15
 274:	00000213          	li	tp,0
 278:	00002097          	auipc	ra,0x2
 27c:	d8908093          	add	ra,ra,-631 # 2001 <tdat2>
 280:	0010c703          	lbu	a4,1(ra)
 284:	0f000393          	li	t2,240
 288:	0a771663          	bne	a4,t2,334 <fail>
 28c:	00120213          	add	tp,tp,1 # 1 <_start+0x1>
 290:	00200293          	li	t0,2
 294:	fe5212e3          	bne	tp,t0,278 <test_15+0x8>

00000298 <test_16>:
 298:	01000193          	li	gp,16
 29c:	00000213          	li	tp,0
 2a0:	00002097          	auipc	ra,0x2
 2a4:	d6208093          	add	ra,ra,-670 # 2002 <tdat3>
 2a8:	00000013          	nop
 2ac:	0010c703          	lbu	a4,1(ra)
 2b0:	00f00393          	li	t2,15
 2b4:	08771063          	bne	a4,t2,334 <fail>
 2b8:	00120213          	add	tp,tp,1 # 1 <_start+0x1>
 2bc:	00200293          	li	t0,2
 2c0:	fe5210e3          	bne	tp,t0,2a0 <test_16+0x8>

000002c4 <test_17>:
 2c4:	01100193          	li	gp,17
 2c8:	00000213          	li	tp,0
 2cc:	00002097          	auipc	ra,0x2
 2d0:	d3408093          	add	ra,ra,-716 # 2000 <begin_signature>
 2d4:	00000013          	nop
 2d8:	00000013          	nop
 2dc:	0010c703          	lbu	a4,1(ra)
 2e0:	00000393          	li	t2,0
 2e4:	04771863          	bne	a4,t2,334 <fail>
 2e8:	00120213          	add	tp,tp,1 # 1 <_start+0x1>
 2ec:	00200293          	li	t0,2
 2f0:	fc521ee3          	bne	tp,t0,2cc <test_17+0x8>

000002f4 <test_18>:
 2f4:	01200193          	li	gp,18
 2f8:	00002297          	auipc	t0,0x2
 2fc:	d0828293          	add	t0,t0,-760 # 2000 <begin_signature>
 300:	0002c103          	lbu	sp,0(t0)
 304:	00200113          	li	sp,2
 308:	00200393          	li	t2,2
 30c:	02711463          	bne	sp,t2,334 <fail>

00000310 <test_19>:
 310:	01300193          	li	gp,19
 314:	00002297          	auipc	t0,0x2
 318:	cec28293          	add	t0,t0,-788 # 2000 <begin_signature>
 31c:	0002c103          	lbu	sp,0(t0)
 320:	00000013          	nop
 324:	00200113          	li	sp,2
 328:	00200393          	li	t2,2
 32c:	00711463          	bne	sp,t2,334 <fail>
 330:	02301263          	bne	zero,gp,354 <pass>

00000334 <fail>:
 334:	0ff0000f          	fence
 338:	04e00513          	li	a0,78
 33c:	fea00fa3          	sb	a0,-1(zero) # ffffffff <_end+0xffffcfff>
 340:	06f00513          	li	a0,111
 344:	fea00fa3          	sb	a0,-1(zero) # ffffffff <_end+0xffffcfff>
 348:	00a00513          	li	a0,10
 34c:	fea00fa3          	sb	a0,-1(zero) # ffffffff <_end+0xffffcfff>
 350:	c0001073          	unimp

00000354 <pass>:
 354:	0ff0000f          	fence
 358:	04f00513          	li	a0,79
 35c:	fea00fa3          	sb	a0,-1(zero) # ffffffff <_end+0xffffcfff>
 360:	06b00513          	li	a0,107
 364:	fea00fa3          	sb	a0,-1(zero) # ffffffff <_end+0xffffcfff>
 368:	00a00513          	li	a0,10
 36c:	fea00fa3          	sb	a0,-1(zero) # ffffffff <_end+0xffffcfff>
 370:	00100193          	li	gp,1
 374:	c0001073          	unimp
 378:	c0001073          	unimp
	...
