
lhu.elf:     file format elf32-littleriscv


Disassembly of section .text.init:

00000000 <_start>:
   0:	0040006f          	j	4 <reset_vector>

00000004 <reset_vector>:
   4:	00000093          	li	ra,0
   8:	00000113          	li	sp,0
   c:	00000193          	li	gp,0
  10:	00000213          	li	tp,0
  14:	00000293          	li	t0,0
  18:	00000313          	li	t1,0
  1c:	00000393          	li	t2,0
  20:	00000413          	li	s0,0
  24:	00000493          	li	s1,0
  28:	00000513          	li	a0,0
  2c:	00000593          	li	a1,0
  30:	00000613          	li	a2,0
  34:	00000693          	li	a3,0
  38:	00000713          	li	a4,0
  3c:	00000793          	li	a5,0
  40:	00000813          	li	a6,0
  44:	00000893          	li	a7,0
  48:	00000913          	li	s2,0
  4c:	00000993          	li	s3,0
  50:	00000a13          	li	s4,0
  54:	00000a93          	li	s5,0
  58:	00000b13          	li	s6,0
  5c:	00000b93          	li	s7,0
  60:	00000c13          	li	s8,0
  64:	00000c93          	li	s9,0
  68:	00000d13          	li	s10,0
  6c:	00000d93          	li	s11,0
  70:	00000e13          	li	t3,0
  74:	00000e93          	li	t4,0
  78:	00000f13          	li	t5,0
  7c:	00000f93          	li	t6,0
  80:	00000193          	li	gp,0
  84:	00100513          	li	a0,1
  88:	01f51513          	sll	a0,a0,0x1f
  8c:	02054263          	bltz	a0,b0 <reset_vector+0xac>
  90:	0ff0000f          	fence
  94:	04f00513          	li	a0,79
  98:	fea00fa3          	sb	a0,-1(zero) # ffffffff <_end+0xffffcfff>
  9c:	06b00513          	li	a0,107
  a0:	fea00fa3          	sb	a0,-1(zero) # ffffffff <_end+0xffffcfff>
  a4:	00a00513          	li	a0,10
  a8:	fea00fa3          	sb	a0,-1(zero) # ffffffff <_end+0xffffcfff>
  ac:	00100193          	li	gp,1
  b0:	30005073          	csrw	mstatus,0
  b4:	00000297          	auipc	t0,0x0
  b8:	01428293          	add	t0,t0,20 # c8 <test_2>
  bc:	34129073          	csrw	mepc,t0
  c0:	f1402573          	csrr	a0,mhartid
  c4:	30200073          	mret

000000c8 <test_2>:
  c8:	00200193          	li	gp,2
  cc:	0ff00793          	li	a5,255
  d0:	00002097          	auipc	ra,0x2
  d4:	f3008093          	add	ra,ra,-208 # 2000 <begin_signature>
  d8:	0000d703          	lhu	a4,0(ra)
  dc:	0ff00393          	li	t2,255
  e0:	2a771063          	bne	a4,t2,380 <fail>

000000e4 <test_3>:
  e4:	00300193          	li	gp,3
  e8:	000107b7          	lui	a5,0x10
  ec:	f0078793          	add	a5,a5,-256 # ff00 <_end+0xcf00>
  f0:	00002097          	auipc	ra,0x2
  f4:	f1008093          	add	ra,ra,-240 # 2000 <begin_signature>
  f8:	0020d703          	lhu	a4,2(ra)
  fc:	000103b7          	lui	t2,0x10
 100:	f0038393          	add	t2,t2,-256 # ff00 <_end+0xcf00>
 104:	26771e63          	bne	a4,t2,380 <fail>

00000108 <test_4>:
 108:	00400193          	li	gp,4
 10c:	000017b7          	lui	a5,0x1
 110:	ff078793          	add	a5,a5,-16 # ff0 <pass+0xc50>
 114:	00002097          	auipc	ra,0x2
 118:	eec08093          	add	ra,ra,-276 # 2000 <begin_signature>
 11c:	0040d703          	lhu	a4,4(ra)
 120:	000013b7          	lui	t2,0x1
 124:	ff038393          	add	t2,t2,-16 # ff0 <pass+0xc50>
 128:	24771c63          	bne	a4,t2,380 <fail>

0000012c <test_5>:
 12c:	00500193          	li	gp,5
 130:	0000f7b7          	lui	a5,0xf
 134:	00f78793          	add	a5,a5,15 # f00f <_end+0xc00f>
 138:	00002097          	auipc	ra,0x2
 13c:	ec808093          	add	ra,ra,-312 # 2000 <begin_signature>
 140:	0060d703          	lhu	a4,6(ra)
 144:	0000f3b7          	lui	t2,0xf
 148:	00f38393          	add	t2,t2,15 # f00f <_end+0xc00f>
 14c:	22771a63          	bne	a4,t2,380 <fail>

00000150 <test_6>:
 150:	00600193          	li	gp,6
 154:	0ff00793          	li	a5,255
 158:	00002097          	auipc	ra,0x2
 15c:	eae08093          	add	ra,ra,-338 # 2006 <tdat4>
 160:	ffa0d703          	lhu	a4,-6(ra)
 164:	0ff00393          	li	t2,255
 168:	20771c63          	bne	a4,t2,380 <fail>

0000016c <test_7>:
 16c:	00700193          	li	gp,7
 170:	000107b7          	lui	a5,0x10
 174:	f0078793          	add	a5,a5,-256 # ff00 <_end+0xcf00>
 178:	00002097          	auipc	ra,0x2
 17c:	e8e08093          	add	ra,ra,-370 # 2006 <tdat4>
 180:	ffc0d703          	lhu	a4,-4(ra)
 184:	000103b7          	lui	t2,0x10
 188:	f0038393          	add	t2,t2,-256 # ff00 <_end+0xcf00>
 18c:	1e771a63          	bne	a4,t2,380 <fail>

00000190 <test_8>:
 190:	00800193          	li	gp,8
 194:	000017b7          	lui	a5,0x1
 198:	ff078793          	add	a5,a5,-16 # ff0 <pass+0xc50>
 19c:	00002097          	auipc	ra,0x2
 1a0:	e6a08093          	add	ra,ra,-406 # 2006 <tdat4>
 1a4:	ffe0d703          	lhu	a4,-2(ra)
 1a8:	000013b7          	lui	t2,0x1
 1ac:	ff038393          	add	t2,t2,-16 # ff0 <pass+0xc50>
 1b0:	1c771863          	bne	a4,t2,380 <fail>

000001b4 <test_9>:
 1b4:	00900193          	li	gp,9
 1b8:	0000f7b7          	lui	a5,0xf
 1bc:	00f78793          	add	a5,a5,15 # f00f <_end+0xc00f>
 1c0:	00002097          	auipc	ra,0x2
 1c4:	e4608093          	add	ra,ra,-442 # 2006 <tdat4>
 1c8:	0000d703          	lhu	a4,0(ra)
 1cc:	0000f3b7          	lui	t2,0xf
 1d0:	00f38393          	add	t2,t2,15 # f00f <_end+0xc00f>
 1d4:	1a771663          	bne	a4,t2,380 <fail>

000001d8 <test_10>:
 1d8:	00a00193          	li	gp,10
 1dc:	00002097          	auipc	ra,0x2
 1e0:	e2408093          	add	ra,ra,-476 # 2000 <begin_signature>
 1e4:	fe008093          	add	ra,ra,-32
 1e8:	0200d283          	lhu	t0,32(ra)
 1ec:	0ff00393          	li	t2,255
 1f0:	18729863          	bne	t0,t2,380 <fail>

000001f4 <test_11>:
 1f4:	00b00193          	li	gp,11
 1f8:	00002097          	auipc	ra,0x2
 1fc:	e0808093          	add	ra,ra,-504 # 2000 <begin_signature>
 200:	ffb08093          	add	ra,ra,-5
 204:	0070d283          	lhu	t0,7(ra)
 208:	000103b7          	lui	t2,0x10
 20c:	f0038393          	add	t2,t2,-256 # ff00 <_end+0xcf00>
 210:	16729863          	bne	t0,t2,380 <fail>

00000214 <test_12>:
 214:	00c00193          	li	gp,12
 218:	00000213          	li	tp,0
 21c:	00002097          	auipc	ra,0x2
 220:	de608093          	add	ra,ra,-538 # 2002 <tdat2>
 224:	0020d703          	lhu	a4,2(ra)
 228:	00070313          	mv	t1,a4
 22c:	000013b7          	lui	t2,0x1
 230:	ff038393          	add	t2,t2,-16 # ff0 <pass+0xc50>
 234:	14731663          	bne	t1,t2,380 <fail>
 238:	00120213          	add	tp,tp,1 # 1 <_start+0x1>
 23c:	00200293          	li	t0,2
 240:	fc521ee3          	bne	tp,t0,21c <test_12+0x8>

00000244 <test_13>:
 244:	00d00193          	li	gp,13
 248:	00000213          	li	tp,0
 24c:	00002097          	auipc	ra,0x2
 250:	db808093          	add	ra,ra,-584 # 2004 <tdat3>
 254:	0020d703          	lhu	a4,2(ra)
 258:	00000013          	nop
 25c:	00070313          	mv	t1,a4
 260:	0000f3b7          	lui	t2,0xf
 264:	00f38393          	add	t2,t2,15 # f00f <_end+0xc00f>
 268:	10731c63          	bne	t1,t2,380 <fail>
 26c:	00120213          	add	tp,tp,1 # 1 <_start+0x1>
 270:	00200293          	li	t0,2
 274:	fc521ce3          	bne	tp,t0,24c <test_13+0x8>

00000278 <test_14>:
 278:	00e00193          	li	gp,14
 27c:	00000213          	li	tp,0
 280:	00002097          	auipc	ra,0x2
 284:	d8008093          	add	ra,ra,-640 # 2000 <begin_signature>
 288:	0020d703          	lhu	a4,2(ra)
 28c:	00000013          	nop
 290:	00000013          	nop
 294:	00070313          	mv	t1,a4
 298:	000103b7          	lui	t2,0x10
 29c:	f0038393          	add	t2,t2,-256 # ff00 <_end+0xcf00>
 2a0:	0e731063          	bne	t1,t2,380 <fail>
 2a4:	00120213          	add	tp,tp,1 # 1 <_start+0x1>
 2a8:	00200293          	li	t0,2
 2ac:	fc521ae3          	bne	tp,t0,280 <test_14+0x8>

000002b0 <test_15>:
 2b0:	00f00193          	li	gp,15
 2b4:	00000213          	li	tp,0
 2b8:	00002097          	auipc	ra,0x2
 2bc:	d4a08093          	add	ra,ra,-694 # 2002 <tdat2>
 2c0:	0020d703          	lhu	a4,2(ra)
 2c4:	000013b7          	lui	t2,0x1
 2c8:	ff038393          	add	t2,t2,-16 # ff0 <pass+0xc50>
 2cc:	0a771a63          	bne	a4,t2,380 <fail>
 2d0:	00120213          	add	tp,tp,1 # 1 <_start+0x1>
 2d4:	00200293          	li	t0,2
 2d8:	fe5210e3          	bne	tp,t0,2b8 <test_15+0x8>

000002dc <test_16>:
 2dc:	01000193          	li	gp,16
 2e0:	00000213          	li	tp,0
 2e4:	00002097          	auipc	ra,0x2
 2e8:	d2008093          	add	ra,ra,-736 # 2004 <tdat3>
 2ec:	00000013          	nop
 2f0:	0020d703          	lhu	a4,2(ra)
 2f4:	0000f3b7          	lui	t2,0xf
 2f8:	00f38393          	add	t2,t2,15 # f00f <_end+0xc00f>
 2fc:	08771263          	bne	a4,t2,380 <fail>
 300:	00120213          	add	tp,tp,1 # 1 <_start+0x1>
 304:	00200293          	li	t0,2
 308:	fc521ee3          	bne	tp,t0,2e4 <test_16+0x8>

0000030c <test_17>:
 30c:	01100193          	li	gp,17
 310:	00000213          	li	tp,0
 314:	00002097          	auipc	ra,0x2
 318:	cec08093          	add	ra,ra,-788 # 2000 <begin_signature>
 31c:	00000013          	nop
 320:	00000013          	nop
 324:	0020d703          	lhu	a4,2(ra)
 328:	000103b7          	lui	t2,0x10
 32c:	f0038393          	add	t2,t2,-256 # ff00 <_end+0xcf00>
 330:	04771863          	bne	a4,t2,380 <fail>
 334:	00120213          	add	tp,tp,1 # 1 <_start+0x1>
 338:	00200293          	li	t0,2
 33c:	fc521ce3          	bne	tp,t0,314 <test_17+0x8>

00000340 <test_18>:
 340:	01200193          	li	gp,18
 344:	00002297          	auipc	t0,0x2
 348:	cbc28293          	add	t0,t0,-836 # 2000 <begin_signature>
 34c:	0002d103          	lhu	sp,0(t0)
 350:	00200113          	li	sp,2
 354:	00200393          	li	t2,2
 358:	02711463          	bne	sp,t2,380 <fail>

0000035c <test_19>:
 35c:	01300193          	li	gp,19
 360:	00002297          	auipc	t0,0x2
 364:	ca028293          	add	t0,t0,-864 # 2000 <begin_signature>
 368:	0002d103          	lhu	sp,0(t0)
 36c:	00000013          	nop
 370:	00200113          	li	sp,2
 374:	00200393          	li	t2,2
 378:	00711463          	bne	sp,t2,380 <fail>
 37c:	02301263          	bne	zero,gp,3a0 <pass>

00000380 <fail>:
 380:	0ff0000f          	fence
 384:	04e00513          	li	a0,78
 388:	fea00fa3          	sb	a0,-1(zero) # ffffffff <_end+0xffffcfff>
 38c:	06f00513          	li	a0,111
 390:	fea00fa3          	sb	a0,-1(zero) # ffffffff <_end+0xffffcfff>
 394:	00a00513          	li	a0,10
 398:	fea00fa3          	sb	a0,-1(zero) # ffffffff <_end+0xffffcfff>
 39c:	c0001073          	unimp

000003a0 <pass>:
 3a0:	0ff0000f          	fence
 3a4:	04f00513          	li	a0,79
 3a8:	fea00fa3          	sb	a0,-1(zero) # ffffffff <_end+0xffffcfff>
 3ac:	06b00513          	li	a0,107
 3b0:	fea00fa3          	sb	a0,-1(zero) # ffffffff <_end+0xffffcfff>
 3b4:	00a00513          	li	a0,10
 3b8:	fea00fa3          	sb	a0,-1(zero) # ffffffff <_end+0xffffcfff>
 3bc:	00100193          	li	gp,1
 3c0:	c0001073          	unimp
 3c4:	c0001073          	unimp
	...
