
lhu.elf:     file format elf32-littleriscv


Disassembly of section .text.init:

00000000 <_start>:
   0:	0500006f          	j	50 <reset_vector>

00000004 <trap_vector>:
   4:	34202f73          	csrr	t5,mcause
   8:	00800f93          	li	t6,8
   c:	03ff0863          	beq	t5,t6,3c <write_tohost>
  10:	00900f93          	li	t6,9
  14:	03ff0463          	beq	t5,t6,3c <write_tohost>
  18:	00b00f93          	li	t6,11
  1c:	03ff0063          	beq	t5,t6,3c <write_tohost>
  20:	00000f13          	li	t5,0
  24:	000f0463          	beqz	t5,2c <trap_vector+0x28>
  28:	000f0067          	jr	t5
  2c:	34202f73          	csrr	t5,mcause
  30:	000f5463          	bgez	t5,38 <handle_exception>
  34:	0040006f          	j	38 <handle_exception>

00000038 <handle_exception>:
  38:	5391e193          	or	gp,gp,1337

0000003c <write_tohost>:
  3c:	00001f17          	auipc	t5,0x1
  40:	fc3f2223          	sw	gp,-60(t5) # 1000 <tohost>
  44:	00001f17          	auipc	t5,0x1
  48:	fc0f2023          	sw	zero,-64(t5) # 1004 <tohost+0x4>
  4c:	ff1ff06f          	j	3c <write_tohost>

00000050 <reset_vector>:
  50:	00000093          	li	ra,0
  54:	00000113          	li	sp,0
  58:	00000193          	li	gp,0
  5c:	00000213          	li	tp,0
  60:	00000293          	li	t0,0
  64:	00000313          	li	t1,0
  68:	00000393          	li	t2,0
  6c:	00000413          	li	s0,0
  70:	00000493          	li	s1,0
  74:	00000513          	li	a0,0
  78:	00000593          	li	a1,0
  7c:	00000613          	li	a2,0
  80:	00000693          	li	a3,0
  84:	00000713          	li	a4,0
  88:	00000793          	li	a5,0
  8c:	00000813          	li	a6,0
  90:	00000893          	li	a7,0
  94:	00000913          	li	s2,0
  98:	00000993          	li	s3,0
  9c:	00000a13          	li	s4,0
  a0:	00000a93          	li	s5,0
  a4:	00000b13          	li	s6,0
  a8:	00000b93          	li	s7,0
  ac:	00000c13          	li	s8,0
  b0:	00000c93          	li	s9,0
  b4:	00000d13          	li	s10,0
  b8:	00000d93          	li	s11,0
  bc:	00000e13          	li	t3,0
  c0:	00000e93          	li	t4,0
  c4:	00000f13          	li	t5,0
  c8:	00000f93          	li	t6,0
  cc:	f1402573          	csrr	a0,mhartid
  d0:	00051063          	bnez	a0,d0 <reset_vector+0x80>
  d4:	00000297          	auipc	t0,0x0
  d8:	01028293          	add	t0,t0,16 # e4 <reset_vector+0x94>
  dc:	30529073          	csrw	mtvec,t0
  e0:	74445073          	csrw	0x744,8
  e4:	00000297          	auipc	t0,0x0
  e8:	01028293          	add	t0,t0,16 # f4 <reset_vector+0xa4>
  ec:	30529073          	csrw	mtvec,t0
  f0:	18005073          	csrw	satp,0
  f4:	00000297          	auipc	t0,0x0
  f8:	02028293          	add	t0,t0,32 # 114 <reset_vector+0xc4>
  fc:	30529073          	csrw	mtvec,t0
 100:	800002b7          	lui	t0,0x80000
 104:	fff28293          	add	t0,t0,-1 # 7fffffff <_end+0x7fffdfef>
 108:	3b029073          	csrw	pmpaddr0,t0
 10c:	01f00293          	li	t0,31
 110:	3a029073          	csrw	pmpcfg0,t0
 114:	30405073          	csrw	mie,0
 118:	00000297          	auipc	t0,0x0
 11c:	01428293          	add	t0,t0,20 # 12c <reset_vector+0xdc>
 120:	30529073          	csrw	mtvec,t0
 124:	30205073          	csrw	medeleg,0
 128:	30305073          	csrw	mideleg,0
 12c:	00000193          	li	gp,0
 130:	00000297          	auipc	t0,0x0
 134:	ed428293          	add	t0,t0,-300 # 4 <trap_vector>
 138:	30529073          	csrw	mtvec,t0
 13c:	00100513          	li	a0,1
 140:	01f51513          	sll	a0,a0,0x1f
 144:	00054c63          	bltz	a0,15c <reset_vector+0x10c>
 148:	0ff0000f          	fence
 14c:	00100193          	li	gp,1
 150:	05d00893          	li	a7,93
 154:	00000513          	li	a0,0
 158:	00000073          	ecall
 15c:	00000293          	li	t0,0
 160:	00028a63          	beqz	t0,174 <reset_vector+0x124>
 164:	10529073          	csrw	stvec,t0
 168:	0000b2b7          	lui	t0,0xb
 16c:	10928293          	add	t0,t0,265 # b109 <_end+0x90f9>
 170:	30229073          	csrw	medeleg,t0
 174:	30005073          	csrw	mstatus,0
 178:	00000297          	auipc	t0,0x0
 17c:	01428293          	add	t0,t0,20 # 18c <test_2>
 180:	34129073          	csrw	mepc,t0
 184:	f1402573          	csrr	a0,mhartid
 188:	30200073          	mret

0000018c <test_2>:
 18c:	00200193          	li	gp,2
 190:	0ff00793          	li	a5,255
 194:	00002097          	auipc	ra,0x2
 198:	e6c08093          	add	ra,ra,-404 # 2000 <begin_signature>
 19c:	0000d703          	lhu	a4,0(ra)
 1a0:	0ff00393          	li	t2,255
 1a4:	2a771063          	bne	a4,t2,444 <fail>

000001a8 <test_3>:
 1a8:	00300193          	li	gp,3
 1ac:	000107b7          	lui	a5,0x10
 1b0:	f0078793          	add	a5,a5,-256 # ff00 <_end+0xdef0>
 1b4:	00002097          	auipc	ra,0x2
 1b8:	e4c08093          	add	ra,ra,-436 # 2000 <begin_signature>
 1bc:	0020d703          	lhu	a4,2(ra)
 1c0:	000103b7          	lui	t2,0x10
 1c4:	f0038393          	add	t2,t2,-256 # ff00 <_end+0xdef0>
 1c8:	26771e63          	bne	a4,t2,444 <fail>

000001cc <test_4>:
 1cc:	00400193          	li	gp,4
 1d0:	000017b7          	lui	a5,0x1
 1d4:	ff078793          	add	a5,a5,-16 # ff0 <pass+0xb90>
 1d8:	00002097          	auipc	ra,0x2
 1dc:	e2808093          	add	ra,ra,-472 # 2000 <begin_signature>
 1e0:	0040d703          	lhu	a4,4(ra)
 1e4:	000013b7          	lui	t2,0x1
 1e8:	ff038393          	add	t2,t2,-16 # ff0 <pass+0xb90>
 1ec:	24771c63          	bne	a4,t2,444 <fail>

000001f0 <test_5>:
 1f0:	00500193          	li	gp,5
 1f4:	0000f7b7          	lui	a5,0xf
 1f8:	00f78793          	add	a5,a5,15 # f00f <_end+0xcfff>
 1fc:	00002097          	auipc	ra,0x2
 200:	e0408093          	add	ra,ra,-508 # 2000 <begin_signature>
 204:	0060d703          	lhu	a4,6(ra)
 208:	0000f3b7          	lui	t2,0xf
 20c:	00f38393          	add	t2,t2,15 # f00f <_end+0xcfff>
 210:	22771a63          	bne	a4,t2,444 <fail>

00000214 <test_6>:
 214:	00600193          	li	gp,6
 218:	0ff00793          	li	a5,255
 21c:	00002097          	auipc	ra,0x2
 220:	dea08093          	add	ra,ra,-534 # 2006 <tdat4>
 224:	ffa0d703          	lhu	a4,-6(ra)
 228:	0ff00393          	li	t2,255
 22c:	20771c63          	bne	a4,t2,444 <fail>

00000230 <test_7>:
 230:	00700193          	li	gp,7
 234:	000107b7          	lui	a5,0x10
 238:	f0078793          	add	a5,a5,-256 # ff00 <_end+0xdef0>
 23c:	00002097          	auipc	ra,0x2
 240:	dca08093          	add	ra,ra,-566 # 2006 <tdat4>
 244:	ffc0d703          	lhu	a4,-4(ra)
 248:	000103b7          	lui	t2,0x10
 24c:	f0038393          	add	t2,t2,-256 # ff00 <_end+0xdef0>
 250:	1e771a63          	bne	a4,t2,444 <fail>

00000254 <test_8>:
 254:	00800193          	li	gp,8
 258:	000017b7          	lui	a5,0x1
 25c:	ff078793          	add	a5,a5,-16 # ff0 <pass+0xb90>
 260:	00002097          	auipc	ra,0x2
 264:	da608093          	add	ra,ra,-602 # 2006 <tdat4>
 268:	ffe0d703          	lhu	a4,-2(ra)
 26c:	000013b7          	lui	t2,0x1
 270:	ff038393          	add	t2,t2,-16 # ff0 <pass+0xb90>
 274:	1c771863          	bne	a4,t2,444 <fail>

00000278 <test_9>:
 278:	00900193          	li	gp,9
 27c:	0000f7b7          	lui	a5,0xf
 280:	00f78793          	add	a5,a5,15 # f00f <_end+0xcfff>
 284:	00002097          	auipc	ra,0x2
 288:	d8208093          	add	ra,ra,-638 # 2006 <tdat4>
 28c:	0000d703          	lhu	a4,0(ra)
 290:	0000f3b7          	lui	t2,0xf
 294:	00f38393          	add	t2,t2,15 # f00f <_end+0xcfff>
 298:	1a771663          	bne	a4,t2,444 <fail>

0000029c <test_10>:
 29c:	00a00193          	li	gp,10
 2a0:	00002097          	auipc	ra,0x2
 2a4:	d6008093          	add	ra,ra,-672 # 2000 <begin_signature>
 2a8:	fe008093          	add	ra,ra,-32
 2ac:	0200d283          	lhu	t0,32(ra)
 2b0:	0ff00393          	li	t2,255
 2b4:	18729863          	bne	t0,t2,444 <fail>

000002b8 <test_11>:
 2b8:	00b00193          	li	gp,11
 2bc:	00002097          	auipc	ra,0x2
 2c0:	d4408093          	add	ra,ra,-700 # 2000 <begin_signature>
 2c4:	ffb08093          	add	ra,ra,-5
 2c8:	0070d283          	lhu	t0,7(ra)
 2cc:	000103b7          	lui	t2,0x10
 2d0:	f0038393          	add	t2,t2,-256 # ff00 <_end+0xdef0>
 2d4:	16729863          	bne	t0,t2,444 <fail>

000002d8 <test_12>:
 2d8:	00c00193          	li	gp,12
 2dc:	00000213          	li	tp,0
 2e0:	00002097          	auipc	ra,0x2
 2e4:	d2208093          	add	ra,ra,-734 # 2002 <tdat2>
 2e8:	0020d703          	lhu	a4,2(ra)
 2ec:	00070313          	mv	t1,a4
 2f0:	000013b7          	lui	t2,0x1
 2f4:	ff038393          	add	t2,t2,-16 # ff0 <pass+0xb90>
 2f8:	14731663          	bne	t1,t2,444 <fail>
 2fc:	00120213          	add	tp,tp,1 # 1 <_start+0x1>
 300:	00200293          	li	t0,2
 304:	fc521ee3          	bne	tp,t0,2e0 <test_12+0x8>

00000308 <test_13>:
 308:	00d00193          	li	gp,13
 30c:	00000213          	li	tp,0
 310:	00002097          	auipc	ra,0x2
 314:	cf408093          	add	ra,ra,-780 # 2004 <tdat3>
 318:	0020d703          	lhu	a4,2(ra)
 31c:	00000013          	nop
 320:	00070313          	mv	t1,a4
 324:	0000f3b7          	lui	t2,0xf
 328:	00f38393          	add	t2,t2,15 # f00f <_end+0xcfff>
 32c:	10731c63          	bne	t1,t2,444 <fail>
 330:	00120213          	add	tp,tp,1 # 1 <_start+0x1>
 334:	00200293          	li	t0,2
 338:	fc521ce3          	bne	tp,t0,310 <test_13+0x8>

0000033c <test_14>:
 33c:	00e00193          	li	gp,14
 340:	00000213          	li	tp,0
 344:	00002097          	auipc	ra,0x2
 348:	cbc08093          	add	ra,ra,-836 # 2000 <begin_signature>
 34c:	0020d703          	lhu	a4,2(ra)
 350:	00000013          	nop
 354:	00000013          	nop
 358:	00070313          	mv	t1,a4
 35c:	000103b7          	lui	t2,0x10
 360:	f0038393          	add	t2,t2,-256 # ff00 <_end+0xdef0>
 364:	0e731063          	bne	t1,t2,444 <fail>
 368:	00120213          	add	tp,tp,1 # 1 <_start+0x1>
 36c:	00200293          	li	t0,2
 370:	fc521ae3          	bne	tp,t0,344 <test_14+0x8>

00000374 <test_15>:
 374:	00f00193          	li	gp,15
 378:	00000213          	li	tp,0
 37c:	00002097          	auipc	ra,0x2
 380:	c8608093          	add	ra,ra,-890 # 2002 <tdat2>
 384:	0020d703          	lhu	a4,2(ra)
 388:	000013b7          	lui	t2,0x1
 38c:	ff038393          	add	t2,t2,-16 # ff0 <pass+0xb90>
 390:	0a771a63          	bne	a4,t2,444 <fail>
 394:	00120213          	add	tp,tp,1 # 1 <_start+0x1>
 398:	00200293          	li	t0,2
 39c:	fe5210e3          	bne	tp,t0,37c <test_15+0x8>

000003a0 <test_16>:
 3a0:	01000193          	li	gp,16
 3a4:	00000213          	li	tp,0
 3a8:	00002097          	auipc	ra,0x2
 3ac:	c5c08093          	add	ra,ra,-932 # 2004 <tdat3>
 3b0:	00000013          	nop
 3b4:	0020d703          	lhu	a4,2(ra)
 3b8:	0000f3b7          	lui	t2,0xf
 3bc:	00f38393          	add	t2,t2,15 # f00f <_end+0xcfff>
 3c0:	08771263          	bne	a4,t2,444 <fail>
 3c4:	00120213          	add	tp,tp,1 # 1 <_start+0x1>
 3c8:	00200293          	li	t0,2
 3cc:	fc521ee3          	bne	tp,t0,3a8 <test_16+0x8>

000003d0 <test_17>:
 3d0:	01100193          	li	gp,17
 3d4:	00000213          	li	tp,0
 3d8:	00002097          	auipc	ra,0x2
 3dc:	c2808093          	add	ra,ra,-984 # 2000 <begin_signature>
 3e0:	00000013          	nop
 3e4:	00000013          	nop
 3e8:	0020d703          	lhu	a4,2(ra)
 3ec:	000103b7          	lui	t2,0x10
 3f0:	f0038393          	add	t2,t2,-256 # ff00 <_end+0xdef0>
 3f4:	04771863          	bne	a4,t2,444 <fail>
 3f8:	00120213          	add	tp,tp,1 # 1 <_start+0x1>
 3fc:	00200293          	li	t0,2
 400:	fc521ce3          	bne	tp,t0,3d8 <test_17+0x8>

00000404 <test_18>:
 404:	01200193          	li	gp,18
 408:	00002297          	auipc	t0,0x2
 40c:	bf828293          	add	t0,t0,-1032 # 2000 <begin_signature>
 410:	0002d103          	lhu	sp,0(t0)
 414:	00200113          	li	sp,2
 418:	00200393          	li	t2,2
 41c:	02711463          	bne	sp,t2,444 <fail>

00000420 <test_19>:
 420:	01300193          	li	gp,19
 424:	00002297          	auipc	t0,0x2
 428:	bdc28293          	add	t0,t0,-1060 # 2000 <begin_signature>
 42c:	0002d103          	lhu	sp,0(t0)
 430:	00000013          	nop
 434:	00200113          	li	sp,2
 438:	00200393          	li	t2,2
 43c:	00711463          	bne	sp,t2,444 <fail>
 440:	02301063          	bne	zero,gp,460 <pass>

00000444 <fail>:
 444:	0ff0000f          	fence
 448:	00018063          	beqz	gp,448 <fail+0x4>
 44c:	00119193          	sll	gp,gp,0x1
 450:	0011e193          	or	gp,gp,1
 454:	05d00893          	li	a7,93
 458:	00018513          	mv	a0,gp
 45c:	00000073          	ecall

00000460 <pass>:
 460:	0ff0000f          	fence
 464:	00100193          	li	gp,1
 468:	05d00893          	li	a7,93
 46c:	00000513          	li	a0,0
 470:	00000073          	ecall
 474:	c0001073          	unimp
 478:	0000                	.2byte	0x0
	...
