
ma_data.elf:     file format elf32-littleriscv


Disassembly of section .text.init:

00000000 <_start>:
   0:	0040006f          	j	4 <reset_vector>

00000004 <reset_vector>:
   4:	00000093          	li	ra,0
   8:	00000113          	li	sp,0
   c:	00000193          	li	gp,0
  10:	00000213          	li	tp,0
  14:	00000293          	li	t0,0
  18:	00000313          	li	t1,0
  1c:	00000393          	li	t2,0
  20:	00000413          	li	s0,0
  24:	00000493          	li	s1,0
  28:	00000513          	li	a0,0
  2c:	00000593          	li	a1,0
  30:	00000613          	li	a2,0
  34:	00000693          	li	a3,0
  38:	00000713          	li	a4,0
  3c:	00000793          	li	a5,0
  40:	00000813          	li	a6,0
  44:	00000893          	li	a7,0
  48:	00000913          	li	s2,0
  4c:	00000993          	li	s3,0
  50:	00000a13          	li	s4,0
  54:	00000a93          	li	s5,0
  58:	00000b13          	li	s6,0
  5c:	00000b93          	li	s7,0
  60:	00000c13          	li	s8,0
  64:	00000c93          	li	s9,0
  68:	00000d13          	li	s10,0
  6c:	00000d93          	li	s11,0
  70:	00000e13          	li	t3,0
  74:	00000e93          	li	t4,0
  78:	00000f13          	li	t5,0
  7c:	00000f93          	li	t6,0
  80:	00000193          	li	gp,0
  84:	00100513          	li	a0,1
  88:	01f51513          	sll	a0,a0,0x1f
  8c:	02054263          	bltz	a0,b0 <reset_vector+0xac>
  90:	0ff0000f          	fence
  94:	04f00513          	li	a0,79
  98:	fea00fa3          	sb	a0,-1(zero) # ffffffff <_end+0xffffde7f>
  9c:	06b00513          	li	a0,107
  a0:	fea00fa3          	sb	a0,-1(zero) # ffffffff <_end+0xffffde7f>
  a4:	00a00513          	li	a0,10
  a8:	fea00fa3          	sb	a0,-1(zero) # ffffffff <_end+0xffffde7f>
  ac:	00100193          	li	gp,1
  b0:	30005073          	csrw	mstatus,0
  b4:	00000297          	auipc	t0,0x0
  b8:	01428293          	add	t0,t0,20 # c8 <reset_vector+0xc4>
  bc:	34129073          	csrw	mepc,t0
  c0:	f1402573          	csrr	a0,mhartid
  c4:	30200073          	mret
  c8:	00002417          	auipc	s0,0x2
  cc:	f3840413          	add	s0,s0,-200 # 2000 <begin_signature>
  d0:	00100193          	li	gp,1
  d4:	20100313          	li	t1,513
  d8:	00141383          	lh	t2,1(s0)
  dc:	52731c63          	bne	t1,t2,614 <fail>
  e0:	00200193          	li	gp,2
  e4:	20100313          	li	t1,513
  e8:	00145383          	lhu	t2,1(s0)
  ec:	52731463          	bne	t1,t2,614 <fail>
  f0:	00300193          	li	gp,3
  f4:	04030337          	lui	t1,0x4030
  f8:	20130313          	add	t1,t1,513 # 4030201 <_end+0x402e081>
  fc:	00142383          	lw	t2,1(s0)
 100:	50731a63          	bne	t1,t2,614 <fail>
 104:	00400193          	li	gp,4
 108:	05040337          	lui	t1,0x5040
 10c:	30230313          	add	t1,t1,770 # 5040302 <_end+0x503e182>
 110:	00242383          	lw	t2,2(s0)
 114:	50731063          	bne	t1,t2,614 <fail>
 118:	00500193          	li	gp,5
 11c:	06050337          	lui	t1,0x6050
 120:	40330313          	add	t1,t1,1027 # 6050403 <_end+0x604e283>
 124:	00342383          	lw	t2,3(s0)
 128:	4e731663          	bne	t1,t2,614 <fail>
 12c:	01000193          	li	gp,16
 130:	00002337          	lui	t1,0x2
 134:	01f30313          	add	t1,t1,31 # 201f <begin_signature+0x1f>
 138:	01f41383          	lh	t2,31(s0)
 13c:	4c731c63          	bne	t1,t2,614 <fail>
 140:	01100193          	li	gp,17
 144:	00002337          	lui	t1,0x2
 148:	01f30313          	add	t1,t1,31 # 201f <begin_signature+0x1f>
 14c:	01f45383          	lhu	t2,31(s0)
 150:	4c731263          	bne	t1,t2,614 <fail>
 154:	01200193          	li	gp,18
 158:	201f2337          	lui	t1,0x201f2
 15c:	e1d30313          	add	t1,t1,-483 # 201f1e1d <_end+0x201efc9d>
 160:	01d42383          	lw	t2,29(s0)
 164:	4a731863          	bne	t1,t2,614 <fail>
 168:	01300193          	li	gp,19
 16c:	21202337          	lui	t1,0x21202
 170:	f1e30313          	add	t1,t1,-226 # 21201f1e <_end+0x211ffd9e>
 174:	01e42383          	lw	t2,30(s0)
 178:	48731e63          	bne	t1,t2,614 <fail>
 17c:	01400193          	li	gp,20
 180:	22212337          	lui	t1,0x22212
 184:	01f30313          	add	t1,t1,31 # 2221201f <_end+0x2220fe9f>
 188:	01f42383          	lw	t2,31(s0)
 18c:	48731463          	bne	t1,t2,614 <fail>
 190:	01f00193          	li	gp,31
 194:	00004337          	lui	t1,0x4
 198:	03f30313          	add	t1,t1,63 # 403f <_end+0x1ebf>
 19c:	03f41383          	lh	t2,63(s0)
 1a0:	46731a63          	bne	t1,t2,614 <fail>
 1a4:	02000193          	li	gp,32
 1a8:	00004337          	lui	t1,0x4
 1ac:	03f30313          	add	t1,t1,63 # 403f <_end+0x1ebf>
 1b0:	03f45383          	lhu	t2,63(s0)
 1b4:	46731063          	bne	t1,t2,614 <fail>
 1b8:	02100193          	li	gp,33
 1bc:	403f4337          	lui	t1,0x403f4
 1c0:	e3d30313          	add	t1,t1,-451 # 403f3e3d <_end+0x403f1cbd>
 1c4:	03d42383          	lw	t2,61(s0)
 1c8:	44731663          	bne	t1,t2,614 <fail>
 1cc:	02200193          	li	gp,34
 1d0:	41404337          	lui	t1,0x41404
 1d4:	f3e30313          	add	t1,t1,-194 # 41403f3e <_end+0x41401dbe>
 1d8:	03e42383          	lw	t2,62(s0)
 1dc:	42731c63          	bne	t1,t2,614 <fail>
 1e0:	02300193          	li	gp,35
 1e4:	42414337          	lui	t1,0x42414
 1e8:	03f30313          	add	t1,t1,63 # 4241403f <_end+0x42411ebf>
 1ec:	03f42383          	lw	t2,63(s0)
 1f0:	42731263          	bne	t1,t2,614 <fail>
 1f4:	02e00193          	li	gp,46
 1f8:	ffff8337          	lui	t1,0xffff8
 1fc:	18030313          	add	t1,t1,384 # ffff8180 <_end+0xffff6000>
 200:	006410a3          	sh	t1,1(s0)
 204:	00141383          	lh	t2,1(s0)
 208:	40731663          	bne	t1,t2,614 <fail>
 20c:	02f00193          	li	gp,47
 210:	00008337          	lui	t1,0x8
 214:	38230313          	add	t1,t1,898 # 8382 <_end+0x6202>
 218:	006410a3          	sh	t1,1(s0)
 21c:	00145383          	lhu	t2,1(s0)
 220:	3e731a63          	bne	t1,t2,614 <fail>
 224:	03000193          	li	gp,48
 228:	87868337          	lui	t1,0x87868
 22c:	58430313          	add	t1,t1,1412 # 87868584 <_end+0x87866404>
 230:	006420a3          	sw	t1,1(s0)
 234:	00142383          	lw	t2,1(s0)
 238:	3c731e63          	bne	t1,t2,614 <fail>
 23c:	03100193          	li	gp,49
 240:	8b8a9337          	lui	t1,0x8b8a9
 244:	98830313          	add	t1,t1,-1656 # 8b8a8988 <_end+0x8b8a6808>
 248:	00642123          	sw	t1,2(s0)
 24c:	00242383          	lw	t2,2(s0)
 250:	3c731263          	bne	t1,t2,614 <fail>
 254:	03200193          	li	gp,50
 258:	8f8e9337          	lui	t1,0x8f8e9
 25c:	d8c30313          	add	t1,t1,-628 # 8f8e8d8c <_end+0x8f8e6c0c>
 260:	006421a3          	sw	t1,3(s0)
 264:	00342383          	lw	t2,3(s0)
 268:	3a731663          	bne	t1,t2,614 <fail>
 26c:	03d00193          	li	gp,61
 270:	ffffd337          	lui	t1,0xffffd
 274:	5d430313          	add	t1,t1,1492 # ffffd5d4 <_end+0xffffb454>
 278:	00641fa3          	sh	t1,31(s0)
 27c:	01f41383          	lh	t2,31(s0)
 280:	38731a63          	bne	t1,t2,614 <fail>
 284:	03e00193          	li	gp,62
 288:	0000d337          	lui	t1,0xd
 28c:	7d630313          	add	t1,t1,2006 # d7d6 <_end+0xb656>
 290:	00641fa3          	sh	t1,31(s0)
 294:	01f45383          	lhu	t2,31(s0)
 298:	36731e63          	bne	t1,t2,614 <fail>
 29c:	03f00193          	li	gp,63
 2a0:	dbdae337          	lui	t1,0xdbdae
 2a4:	9d830313          	add	t1,t1,-1576 # dbdad9d8 <_end+0xdbdab858>
 2a8:	00642ea3          	sw	t1,29(s0)
 2ac:	01d42383          	lw	t2,29(s0)
 2b0:	36731263          	bne	t1,t2,614 <fail>
 2b4:	04000193          	li	gp,64
 2b8:	dfdee337          	lui	t1,0xdfdee
 2bc:	ddc30313          	add	t1,t1,-548 # dfdedddc <_end+0xdfdebc5c>
 2c0:	00642f23          	sw	t1,30(s0)
 2c4:	01e42383          	lw	t2,30(s0)
 2c8:	34731663          	bne	t1,t2,614 <fail>
 2cc:	04100193          	li	gp,65
 2d0:	e3e2e337          	lui	t1,0xe3e2e
 2d4:	1e030313          	add	t1,t1,480 # e3e2e1e0 <_end+0xe3e2c060>
 2d8:	00642fa3          	sw	t1,31(s0)
 2dc:	01f42383          	lw	t2,31(s0)
 2e0:	32731a63          	bne	t1,t2,614 <fail>
 2e4:	04c00193          	li	gp,76
 2e8:	00003337          	lui	t1,0x3
 2ec:	53430313          	add	t1,t1,1332 # 3534 <_end+0x13b4>
 2f0:	02641fa3          	sh	t1,63(s0)
 2f4:	03f41383          	lh	t2,63(s0)
 2f8:	30731e63          	bne	t1,t2,614 <fail>
 2fc:	04d00193          	li	gp,77
 300:	00003337          	lui	t1,0x3
 304:	73630313          	add	t1,t1,1846 # 3736 <_end+0x15b6>
 308:	02641fa3          	sh	t1,63(s0)
 30c:	03f45383          	lhu	t2,63(s0)
 310:	30731263          	bne	t1,t2,614 <fail>
 314:	04e00193          	li	gp,78
 318:	3b3a4337          	lui	t1,0x3b3a4
 31c:	93830313          	add	t1,t1,-1736 # 3b3a3938 <_end+0x3b3a17b8>
 320:	02642ea3          	sw	t1,61(s0)
 324:	03d42383          	lw	t2,61(s0)
 328:	2e731663          	bne	t1,t2,614 <fail>
 32c:	04f00193          	li	gp,79
 330:	3f3e4337          	lui	t1,0x3f3e4
 334:	d3c30313          	add	t1,t1,-708 # 3f3e3d3c <_end+0x3f3e1bbc>
 338:	02642f23          	sw	t1,62(s0)
 33c:	03e42383          	lw	t2,62(s0)
 340:	2c731a63          	bne	t1,t2,614 <fail>
 344:	05000193          	li	gp,80
 348:	43424337          	lui	t1,0x43424
 34c:	14030313          	add	t1,t1,320 # 43424140 <_end+0x43421fc0>
 350:	02642fa3          	sw	t1,63(s0)
 354:	03f42383          	lw	t2,63(s0)
 358:	2a731e63          	bne	t1,t2,614 <fail>
 35c:	05b00193          	li	gp,91
 360:	0000a337          	lui	t1,0xa
 364:	99830313          	add	t1,t1,-1640 # 9998 <_end+0x7818>
 368:	f9800393          	li	t2,-104
 36c:	006410a3          	sh	t1,1(s0)
 370:	00140e03          	lb	t3,1(s0)
 374:	2bc39063          	bne	t2,t3,614 <fail>
 378:	05c00193          	li	gp,92
 37c:	0000a337          	lui	t1,0xa
 380:	b9a30313          	add	t1,t1,-1126 # 9b9a <_end+0x7a1a>
 384:	f9b00393          	li	t2,-101
 388:	006410a3          	sh	t1,1(s0)
 38c:	00240e03          	lb	t3,2(s0)
 390:	29c39263          	bne	t2,t3,614 <fail>
 394:	05d00193          	li	gp,93
 398:	0000a337          	lui	t1,0xa
 39c:	d9c30313          	add	t1,t1,-612 # 9d9c <_end+0x7c1c>
 3a0:	09c00393          	li	t2,156
 3a4:	006410a3          	sh	t1,1(s0)
 3a8:	00144e03          	lbu	t3,1(s0)
 3ac:	27c39463          	bne	t2,t3,614 <fail>
 3b0:	05e00193          	li	gp,94
 3b4:	0000a337          	lui	t1,0xa
 3b8:	f9e30313          	add	t1,t1,-98 # 9f9e <_end+0x7e1e>
 3bc:	09f00393          	li	t2,159
 3c0:	006410a3          	sh	t1,1(s0)
 3c4:	00244e03          	lbu	t3,2(s0)
 3c8:	25c39663          	bne	t2,t3,614 <fail>
 3cc:	05f00193          	li	gp,95
 3d0:	a3a2a337          	lui	t1,0xa3a2a
 3d4:	1a030313          	add	t1,t1,416 # a3a2a1a0 <_end+0xa3a28020>
 3d8:	fa000393          	li	t2,-96
 3dc:	006420a3          	sw	t1,1(s0)
 3e0:	00140e03          	lb	t3,1(s0)
 3e4:	23c39863          	bne	t2,t3,614 <fail>
 3e8:	06000193          	li	gp,96
 3ec:	a7a6a337          	lui	t1,0xa7a6a
 3f0:	5a430313          	add	t1,t1,1444 # a7a6a5a4 <_end+0xa7a68424>
 3f4:	0a500393          	li	t2,165
 3f8:	00642123          	sw	t1,2(s0)
 3fc:	00344e03          	lbu	t3,3(s0)
 400:	21c39a63          	bne	t2,t3,614 <fail>
 404:	06100193          	li	gp,97
 408:	abaab337          	lui	t1,0xabaab
 40c:	9a830313          	add	t1,t1,-1624 # abaaa9a8 <_end+0xabaa8828>
 410:	ffffb3b7          	lui	t2,0xffffb
 414:	aa938393          	add	t2,t2,-1367 # ffffaaa9 <_end+0xffff8929>
 418:	006421a3          	sw	t1,3(s0)
 41c:	00441e03          	lh	t3,4(s0)
 420:	1fc39a63          	bne	t2,t3,614 <fail>
 424:	06200193          	li	gp,98
 428:	afaeb337          	lui	t1,0xafaeb
 42c:	dac30313          	add	t1,t1,-596 # afaeadac <_end+0xafae8c2c>
 430:	0000b3b7          	lui	t2,0xb
 434:	fae38393          	add	t2,t2,-82 # afae <_end+0x8e2e>
 438:	006421a3          	sw	t1,3(s0)
 43c:	00545e03          	lhu	t3,5(s0)
 440:	1dc39a63          	bne	t2,t3,614 <fail>
 444:	06a00193          	li	gp,106
 448:	0000f337          	lui	t1,0xf
 44c:	9e830313          	add	t1,t1,-1560 # e9e8 <_end+0xc868>
 450:	fe800393          	li	t2,-24
 454:	00641fa3          	sh	t1,31(s0)
 458:	01f40e03          	lb	t3,31(s0)
 45c:	1bc39c63          	bne	t2,t3,614 <fail>
 460:	06b00193          	li	gp,107
 464:	0000f337          	lui	t1,0xf
 468:	bea30313          	add	t1,t1,-1046 # ebea <_end+0xca6a>
 46c:	feb00393          	li	t2,-21
 470:	00641fa3          	sh	t1,31(s0)
 474:	02040e03          	lb	t3,32(s0)
 478:	19c39e63          	bne	t2,t3,614 <fail>
 47c:	06c00193          	li	gp,108
 480:	0000f337          	lui	t1,0xf
 484:	dec30313          	add	t1,t1,-532 # edec <_end+0xcc6c>
 488:	0ec00393          	li	t2,236
 48c:	00641fa3          	sh	t1,31(s0)
 490:	01f44e03          	lbu	t3,31(s0)
 494:	19c39063          	bne	t2,t3,614 <fail>
 498:	06d00193          	li	gp,109
 49c:	0000f337          	lui	t1,0xf
 4a0:	fee30313          	add	t1,t1,-18 # efee <_end+0xce6e>
 4a4:	0ef00393          	li	t2,239
 4a8:	00641fa3          	sh	t1,31(s0)
 4ac:	02044e03          	lbu	t3,32(s0)
 4b0:	17c39263          	bne	t2,t3,614 <fail>
 4b4:	06e00193          	li	gp,110
 4b8:	f3f2f337          	lui	t1,0xf3f2f
 4bc:	1f030313          	add	t1,t1,496 # f3f2f1f0 <_end+0xf3f2d070>
 4c0:	ff000393          	li	t2,-16
 4c4:	00642ea3          	sw	t1,29(s0)
 4c8:	01d40e03          	lb	t3,29(s0)
 4cc:	15c39463          	bne	t2,t3,614 <fail>
 4d0:	06f00193          	li	gp,111
 4d4:	f7f6f337          	lui	t1,0xf7f6f
 4d8:	5f430313          	add	t1,t1,1524 # f7f6f5f4 <_end+0xf7f6d474>
 4dc:	0f600393          	li	t2,246
 4e0:	00642f23          	sw	t1,30(s0)
 4e4:	02044e03          	lbu	t3,32(s0)
 4e8:	13c39663          	bne	t2,t3,614 <fail>
 4ec:	07000193          	li	gp,112
 4f0:	fbfb0337          	lui	t1,0xfbfb0
 4f4:	9f830313          	add	t1,t1,-1544 # fbfaf9f8 <_end+0xfbfad878>
 4f8:	bfa00393          	li	t2,-1030
 4fc:	00642ea3          	sw	t1,29(s0)
 500:	01f41e03          	lh	t3,31(s0)
 504:	11c39863          	bne	t2,t3,614 <fail>
 508:	07100193          	li	gp,113
 50c:	ffff0337          	lui	t1,0xffff0
 510:	dfc30313          	add	t1,t1,-516 # fffefdfc <_end+0xfffedc7c>
 514:	000103b7          	lui	t2,0x10
 518:	dfc38393          	add	t2,t2,-516 # fdfc <_end+0xdc7c>
 51c:	00642fa3          	sw	t1,31(s0)
 520:	01f45e03          	lhu	t3,31(s0)
 524:	0fc39863          	bne	t2,t3,614 <fail>
 528:	07900193          	li	gp,121
 52c:	00005337          	lui	t1,0x5
 530:	94830313          	add	t1,t1,-1720 # 4948 <_end+0x27c8>
 534:	04800393          	li	t2,72
 538:	02641fa3          	sh	t1,63(s0)
 53c:	03f40e03          	lb	t3,63(s0)
 540:	0dc39a63          	bne	t2,t3,614 <fail>
 544:	07a00193          	li	gp,122
 548:	00005337          	lui	t1,0x5
 54c:	b4a30313          	add	t1,t1,-1206 # 4b4a <_end+0x29ca>
 550:	04b00393          	li	t2,75
 554:	02641fa3          	sh	t1,63(s0)
 558:	04040e03          	lb	t3,64(s0)
 55c:	0bc39c63          	bne	t2,t3,614 <fail>
 560:	07b00193          	li	gp,123
 564:	00005337          	lui	t1,0x5
 568:	d4c30313          	add	t1,t1,-692 # 4d4c <_end+0x2bcc>
 56c:	04c00393          	li	t2,76
 570:	02641fa3          	sh	t1,63(s0)
 574:	03f44e03          	lbu	t3,63(s0)
 578:	09c39e63          	bne	t2,t3,614 <fail>
 57c:	07c00193          	li	gp,124
 580:	00005337          	lui	t1,0x5
 584:	f4e30313          	add	t1,t1,-178 # 4f4e <_end+0x2dce>
 588:	04f00393          	li	t2,79
 58c:	02641fa3          	sh	t1,63(s0)
 590:	04044e03          	lbu	t3,64(s0)
 594:	09c39063          	bne	t2,t3,614 <fail>
 598:	07d00193          	li	gp,125
 59c:	53525337          	lui	t1,0x53525
 5a0:	15030313          	add	t1,t1,336 # 53525150 <_end+0x53522fd0>
 5a4:	05000393          	li	t2,80
 5a8:	02642ea3          	sw	t1,61(s0)
 5ac:	03d40e03          	lb	t3,61(s0)
 5b0:	07c39263          	bne	t2,t3,614 <fail>
 5b4:	07e00193          	li	gp,126
 5b8:	57565337          	lui	t1,0x57565
 5bc:	55430313          	add	t1,t1,1364 # 57565554 <_end+0x575633d4>
 5c0:	05600393          	li	t2,86
 5c4:	02642f23          	sw	t1,62(s0)
 5c8:	04044e03          	lbu	t3,64(s0)
 5cc:	05c39463          	bne	t2,t3,614 <fail>
 5d0:	07f00193          	li	gp,127
 5d4:	5b5a6337          	lui	t1,0x5b5a6
 5d8:	95830313          	add	t1,t1,-1704 # 5b5a5958 <_end+0x5b5a37d8>
 5dc:	000063b7          	lui	t2,0x6
 5e0:	b5a38393          	add	t2,t2,-1190 # 5b5a <_end+0x39da>
 5e4:	02642ea3          	sw	t1,61(s0)
 5e8:	03f41e03          	lh	t3,63(s0)
 5ec:	03c39463          	bne	t2,t3,614 <fail>
 5f0:	08000193          	li	gp,128
 5f4:	5f5e6337          	lui	t1,0x5f5e6
 5f8:	d5c30313          	add	t1,t1,-676 # 5f5e5d5c <_end+0x5f5e3bdc>
 5fc:	000063b7          	lui	t2,0x6
 600:	d5c38393          	add	t2,t2,-676 # 5d5c <_end+0x3bdc>
 604:	02642fa3          	sw	t1,63(s0)
 608:	03f45e03          	lhu	t3,63(s0)
 60c:	01c39463          	bne	t2,t3,614 <fail>
 610:	02301863          	bne	zero,gp,640 <pass>

00000614 <fail>:
 614:	0ff0000f          	fence
 618:	04e00513          	li	a0,78
 61c:	fea00fa3          	sb	a0,-1(zero) # ffffffff <_end+0xffffde7f>
 620:	06f00513          	li	a0,111
 624:	fea00fa3          	sb	a0,-1(zero) # ffffffff <_end+0xffffde7f>
 628:	00a00513          	li	a0,10
 62c:	fea00fa3          	sb	a0,-1(zero) # ffffffff <_end+0xffffde7f>
 630:	00018063          	beqz	gp,630 <fail+0x1c>
 634:	00119193          	sll	gp,gp,0x1
 638:	0011e193          	or	gp,gp,1
 63c:	c0001073          	unimp

00000640 <pass>:
 640:	0ff0000f          	fence
 644:	04f00513          	li	a0,79
 648:	fea00fa3          	sb	a0,-1(zero) # ffffffff <_end+0xffffde7f>
 64c:	06b00513          	li	a0,107
 650:	fea00fa3          	sb	a0,-1(zero) # ffffffff <_end+0xffffde7f>
 654:	00a00513          	li	a0,10
 658:	fea00fa3          	sb	a0,-1(zero) # ffffffff <_end+0xffffde7f>
 65c:	00100193          	li	gp,1
 660:	c0001073          	unimp
 664:	c0001073          	unimp
	...
