
or.elf:     file format elf32-littleriscv


Disassembly of section .text.init:

00000000 <_start>:
   0:	0500006f          	j	50 <reset_vector>

00000004 <trap_vector>:
   4:	34202f73          	csrr	t5,mcause
   8:	00800f93          	li	t6,8
   c:	03ff0863          	beq	t5,t6,3c <write_tohost>
  10:	00900f93          	li	t6,9
  14:	03ff0463          	beq	t5,t6,3c <write_tohost>
  18:	00b00f93          	li	t6,11
  1c:	03ff0063          	beq	t5,t6,3c <write_tohost>
  20:	00000f13          	li	t5,0
  24:	000f0463          	beqz	t5,2c <trap_vector+0x28>
  28:	000f0067          	jr	t5
  2c:	34202f73          	csrr	t5,mcause
  30:	000f5463          	bgez	t5,38 <handle_exception>
  34:	0040006f          	j	38 <handle_exception>

00000038 <handle_exception>:
  38:	5391e193          	or	gp,gp,1337

0000003c <write_tohost>:
  3c:	00001f17          	auipc	t5,0x1
  40:	fc3f2223          	sw	gp,-60(t5) # 1000 <tohost>
  44:	00001f17          	auipc	t5,0x1
  48:	fc0f2023          	sw	zero,-64(t5) # 1004 <tohost+0x4>
  4c:	ff1ff06f          	j	3c <write_tohost>

00000050 <reset_vector>:
  50:	00000093          	li	ra,0
  54:	00000113          	li	sp,0
  58:	00000193          	li	gp,0
  5c:	00000213          	li	tp,0
  60:	00000293          	li	t0,0
  64:	00000313          	li	t1,0
  68:	00000393          	li	t2,0
  6c:	00000413          	li	s0,0
  70:	00000493          	li	s1,0
  74:	00000513          	li	a0,0
  78:	00000593          	li	a1,0
  7c:	00000613          	li	a2,0
  80:	00000693          	li	a3,0
  84:	00000713          	li	a4,0
  88:	00000793          	li	a5,0
  8c:	00000813          	li	a6,0
  90:	00000893          	li	a7,0
  94:	00000913          	li	s2,0
  98:	00000993          	li	s3,0
  9c:	00000a13          	li	s4,0
  a0:	00000a93          	li	s5,0
  a4:	00000b13          	li	s6,0
  a8:	00000b93          	li	s7,0
  ac:	00000c13          	li	s8,0
  b0:	00000c93          	li	s9,0
  b4:	00000d13          	li	s10,0
  b8:	00000d93          	li	s11,0
  bc:	00000e13          	li	t3,0
  c0:	00000e93          	li	t4,0
  c4:	00000f13          	li	t5,0
  c8:	00000f93          	li	t6,0
  cc:	f1402573          	csrr	a0,mhartid
  d0:	00051063          	bnez	a0,d0 <reset_vector+0x80>
  d4:	00000297          	auipc	t0,0x0
  d8:	01028293          	add	t0,t0,16 # e4 <reset_vector+0x94>
  dc:	30529073          	csrw	mtvec,t0
  e0:	74445073          	csrw	0x744,8
  e4:	00000297          	auipc	t0,0x0
  e8:	01028293          	add	t0,t0,16 # f4 <reset_vector+0xa4>
  ec:	30529073          	csrw	mtvec,t0
  f0:	18005073          	csrw	satp,0
  f4:	00000297          	auipc	t0,0x0
  f8:	02028293          	add	t0,t0,32 # 114 <reset_vector+0xc4>
  fc:	30529073          	csrw	mtvec,t0
 100:	800002b7          	lui	t0,0x80000
 104:	fff28293          	add	t0,t0,-1 # 7fffffff <_end+0x7fffdfff>
 108:	3b029073          	csrw	pmpaddr0,t0
 10c:	01f00293          	li	t0,31
 110:	3a029073          	csrw	pmpcfg0,t0
 114:	30405073          	csrw	mie,0
 118:	00000297          	auipc	t0,0x0
 11c:	01428293          	add	t0,t0,20 # 12c <reset_vector+0xdc>
 120:	30529073          	csrw	mtvec,t0
 124:	30205073          	csrw	medeleg,0
 128:	30305073          	csrw	mideleg,0
 12c:	00000193          	li	gp,0
 130:	00000297          	auipc	t0,0x0
 134:	ed428293          	add	t0,t0,-300 # 4 <trap_vector>
 138:	30529073          	csrw	mtvec,t0
 13c:	00100513          	li	a0,1
 140:	01f51513          	sll	a0,a0,0x1f
 144:	00054c63          	bltz	a0,15c <reset_vector+0x10c>
 148:	0ff0000f          	fence
 14c:	00100193          	li	gp,1
 150:	05d00893          	li	a7,93
 154:	00000513          	li	a0,0
 158:	00000073          	ecall
 15c:	00000293          	li	t0,0
 160:	00028a63          	beqz	t0,174 <reset_vector+0x124>
 164:	10529073          	csrw	stvec,t0
 168:	0000b2b7          	lui	t0,0xb
 16c:	10928293          	add	t0,t0,265 # b109 <_end+0x9109>
 170:	30229073          	csrw	medeleg,t0
 174:	30005073          	csrw	mstatus,0
 178:	00000297          	auipc	t0,0x0
 17c:	01428293          	add	t0,t0,20 # 18c <test_2>
 180:	34129073          	csrw	mepc,t0
 184:	f1402573          	csrr	a0,mhartid
 188:	30200073          	mret

0000018c <test_2>:
 18c:	00200193          	li	gp,2
 190:	ff0100b7          	lui	ra,0xff010
 194:	f0008093          	add	ra,ra,-256 # ff00ff00 <_end+0xff00df00>
 198:	0f0f1137          	lui	sp,0xf0f1
 19c:	f0f10113          	add	sp,sp,-241 # f0f0f0f <_end+0xf0eef0f>
 1a0:	0020e733          	or	a4,ra,sp
 1a4:	ff1003b7          	lui	t2,0xff100
 1a8:	f0f38393          	add	t2,t2,-241 # ff0fff0f <_end+0xff0fdf0f>
 1ac:	4a771263          	bne	a4,t2,650 <fail>

000001b0 <test_3>:
 1b0:	00300193          	li	gp,3
 1b4:	0ff010b7          	lui	ra,0xff01
 1b8:	ff008093          	add	ra,ra,-16 # ff00ff0 <_end+0xfefeff0>
 1bc:	f0f0f137          	lui	sp,0xf0f0f
 1c0:	0f010113          	add	sp,sp,240 # f0f0f0f0 <_end+0xf0f0d0f0>
 1c4:	0020e733          	or	a4,ra,sp
 1c8:	fff103b7          	lui	t2,0xfff10
 1cc:	ff038393          	add	t2,t2,-16 # fff0fff0 <_end+0xfff0dff0>
 1d0:	48771063          	bne	a4,t2,650 <fail>

000001d4 <test_4>:
 1d4:	00400193          	li	gp,4
 1d8:	00ff00b7          	lui	ra,0xff0
 1dc:	0ff08093          	add	ra,ra,255 # ff00ff <_end+0xfee0ff>
 1e0:	0f0f1137          	lui	sp,0xf0f1
 1e4:	f0f10113          	add	sp,sp,-241 # f0f0f0f <_end+0xf0eef0f>
 1e8:	0020e733          	or	a4,ra,sp
 1ec:	0fff13b7          	lui	t2,0xfff1
 1f0:	fff38393          	add	t2,t2,-1 # fff0fff <_end+0xffeefff>
 1f4:	44771e63          	bne	a4,t2,650 <fail>

000001f8 <test_5>:
 1f8:	00500193          	li	gp,5
 1fc:	f00ff0b7          	lui	ra,0xf00ff
 200:	00f08093          	add	ra,ra,15 # f00ff00f <_end+0xf00fd00f>
 204:	f0f0f137          	lui	sp,0xf0f0f
 208:	0f010113          	add	sp,sp,240 # f0f0f0f0 <_end+0xf0f0d0f0>
 20c:	0020e733          	or	a4,ra,sp
 210:	f0fff3b7          	lui	t2,0xf0fff
 214:	0ff38393          	add	t2,t2,255 # f0fff0ff <_end+0xf0ffd0ff>
 218:	42771c63          	bne	a4,t2,650 <fail>

0000021c <test_6>:
 21c:	00600193          	li	gp,6
 220:	ff0100b7          	lui	ra,0xff010
 224:	f0008093          	add	ra,ra,-256 # ff00ff00 <_end+0xff00df00>
 228:	0f0f1137          	lui	sp,0xf0f1
 22c:	f0f10113          	add	sp,sp,-241 # f0f0f0f <_end+0xf0eef0f>
 230:	0020e0b3          	or	ra,ra,sp
 234:	ff1003b7          	lui	t2,0xff100
 238:	f0f38393          	add	t2,t2,-241 # ff0fff0f <_end+0xff0fdf0f>
 23c:	40709a63          	bne	ra,t2,650 <fail>

00000240 <test_7>:
 240:	00700193          	li	gp,7
 244:	ff0100b7          	lui	ra,0xff010
 248:	f0008093          	add	ra,ra,-256 # ff00ff00 <_end+0xff00df00>
 24c:	0f0f1137          	lui	sp,0xf0f1
 250:	f0f10113          	add	sp,sp,-241 # f0f0f0f <_end+0xf0eef0f>
 254:	0020e133          	or	sp,ra,sp
 258:	ff1003b7          	lui	t2,0xff100
 25c:	f0f38393          	add	t2,t2,-241 # ff0fff0f <_end+0xff0fdf0f>
 260:	3e711863          	bne	sp,t2,650 <fail>

00000264 <test_8>:
 264:	00800193          	li	gp,8
 268:	ff0100b7          	lui	ra,0xff010
 26c:	f0008093          	add	ra,ra,-256 # ff00ff00 <_end+0xff00df00>
 270:	0010e0b3          	or	ra,ra,ra
 274:	ff0103b7          	lui	t2,0xff010
 278:	f0038393          	add	t2,t2,-256 # ff00ff00 <_end+0xff00df00>
 27c:	3c709a63          	bne	ra,t2,650 <fail>

00000280 <test_9>:
 280:	00900193          	li	gp,9
 284:	00000213          	li	tp,0
 288:	ff0100b7          	lui	ra,0xff010
 28c:	f0008093          	add	ra,ra,-256 # ff00ff00 <_end+0xff00df00>
 290:	0f0f1137          	lui	sp,0xf0f1
 294:	f0f10113          	add	sp,sp,-241 # f0f0f0f <_end+0xf0eef0f>
 298:	0020e733          	or	a4,ra,sp
 29c:	00070313          	mv	t1,a4
 2a0:	00120213          	add	tp,tp,1 # 1 <_start+0x1>
 2a4:	00200293          	li	t0,2
 2a8:	fe5210e3          	bne	tp,t0,288 <test_9+0x8>
 2ac:	ff1003b7          	lui	t2,0xff100
 2b0:	f0f38393          	add	t2,t2,-241 # ff0fff0f <_end+0xff0fdf0f>
 2b4:	38731e63          	bne	t1,t2,650 <fail>

000002b8 <test_10>:
 2b8:	00a00193          	li	gp,10
 2bc:	00000213          	li	tp,0
 2c0:	0ff010b7          	lui	ra,0xff01
 2c4:	ff008093          	add	ra,ra,-16 # ff00ff0 <_end+0xfefeff0>
 2c8:	f0f0f137          	lui	sp,0xf0f0f
 2cc:	0f010113          	add	sp,sp,240 # f0f0f0f0 <_end+0xf0f0d0f0>
 2d0:	0020e733          	or	a4,ra,sp
 2d4:	00000013          	nop
 2d8:	00070313          	mv	t1,a4
 2dc:	00120213          	add	tp,tp,1 # 1 <_start+0x1>
 2e0:	00200293          	li	t0,2
 2e4:	fc521ee3          	bne	tp,t0,2c0 <test_10+0x8>
 2e8:	fff103b7          	lui	t2,0xfff10
 2ec:	ff038393          	add	t2,t2,-16 # fff0fff0 <_end+0xfff0dff0>
 2f0:	36731063          	bne	t1,t2,650 <fail>

000002f4 <test_11>:
 2f4:	00b00193          	li	gp,11
 2f8:	00000213          	li	tp,0
 2fc:	00ff00b7          	lui	ra,0xff0
 300:	0ff08093          	add	ra,ra,255 # ff00ff <_end+0xfee0ff>
 304:	0f0f1137          	lui	sp,0xf0f1
 308:	f0f10113          	add	sp,sp,-241 # f0f0f0f <_end+0xf0eef0f>
 30c:	0020e733          	or	a4,ra,sp
 310:	00000013          	nop
 314:	00000013          	nop
 318:	00070313          	mv	t1,a4
 31c:	00120213          	add	tp,tp,1 # 1 <_start+0x1>
 320:	00200293          	li	t0,2
 324:	fc521ce3          	bne	tp,t0,2fc <test_11+0x8>
 328:	0fff13b7          	lui	t2,0xfff1
 32c:	fff38393          	add	t2,t2,-1 # fff0fff <_end+0xffeefff>
 330:	32731063          	bne	t1,t2,650 <fail>

00000334 <test_12>:
 334:	00c00193          	li	gp,12
 338:	00000213          	li	tp,0
 33c:	ff0100b7          	lui	ra,0xff010
 340:	f0008093          	add	ra,ra,-256 # ff00ff00 <_end+0xff00df00>
 344:	0f0f1137          	lui	sp,0xf0f1
 348:	f0f10113          	add	sp,sp,-241 # f0f0f0f <_end+0xf0eef0f>
 34c:	0020e733          	or	a4,ra,sp
 350:	00120213          	add	tp,tp,1 # 1 <_start+0x1>
 354:	00200293          	li	t0,2
 358:	fe5212e3          	bne	tp,t0,33c <test_12+0x8>
 35c:	ff1003b7          	lui	t2,0xff100
 360:	f0f38393          	add	t2,t2,-241 # ff0fff0f <_end+0xff0fdf0f>
 364:	2e771663          	bne	a4,t2,650 <fail>

00000368 <test_13>:
 368:	00d00193          	li	gp,13
 36c:	00000213          	li	tp,0
 370:	0ff010b7          	lui	ra,0xff01
 374:	ff008093          	add	ra,ra,-16 # ff00ff0 <_end+0xfefeff0>
 378:	f0f0f137          	lui	sp,0xf0f0f
 37c:	0f010113          	add	sp,sp,240 # f0f0f0f0 <_end+0xf0f0d0f0>
 380:	00000013          	nop
 384:	0020e733          	or	a4,ra,sp
 388:	00120213          	add	tp,tp,1 # 1 <_start+0x1>
 38c:	00200293          	li	t0,2
 390:	fe5210e3          	bne	tp,t0,370 <test_13+0x8>
 394:	fff103b7          	lui	t2,0xfff10
 398:	ff038393          	add	t2,t2,-16 # fff0fff0 <_end+0xfff0dff0>
 39c:	2a771a63          	bne	a4,t2,650 <fail>

000003a0 <test_14>:
 3a0:	00e00193          	li	gp,14
 3a4:	00000213          	li	tp,0
 3a8:	00ff00b7          	lui	ra,0xff0
 3ac:	0ff08093          	add	ra,ra,255 # ff00ff <_end+0xfee0ff>
 3b0:	0f0f1137          	lui	sp,0xf0f1
 3b4:	f0f10113          	add	sp,sp,-241 # f0f0f0f <_end+0xf0eef0f>
 3b8:	00000013          	nop
 3bc:	00000013          	nop
 3c0:	0020e733          	or	a4,ra,sp
 3c4:	00120213          	add	tp,tp,1 # 1 <_start+0x1>
 3c8:	00200293          	li	t0,2
 3cc:	fc521ee3          	bne	tp,t0,3a8 <test_14+0x8>
 3d0:	0fff13b7          	lui	t2,0xfff1
 3d4:	fff38393          	add	t2,t2,-1 # fff0fff <_end+0xffeefff>
 3d8:	26771c63          	bne	a4,t2,650 <fail>

000003dc <test_15>:
 3dc:	00f00193          	li	gp,15
 3e0:	00000213          	li	tp,0
 3e4:	ff0100b7          	lui	ra,0xff010
 3e8:	f0008093          	add	ra,ra,-256 # ff00ff00 <_end+0xff00df00>
 3ec:	00000013          	nop
 3f0:	0f0f1137          	lui	sp,0xf0f1
 3f4:	f0f10113          	add	sp,sp,-241 # f0f0f0f <_end+0xf0eef0f>
 3f8:	0020e733          	or	a4,ra,sp
 3fc:	00120213          	add	tp,tp,1 # 1 <_start+0x1>
 400:	00200293          	li	t0,2
 404:	fe5210e3          	bne	tp,t0,3e4 <test_15+0x8>
 408:	ff1003b7          	lui	t2,0xff100
 40c:	f0f38393          	add	t2,t2,-241 # ff0fff0f <_end+0xff0fdf0f>
 410:	24771063          	bne	a4,t2,650 <fail>

00000414 <test_16>:
 414:	01000193          	li	gp,16
 418:	00000213          	li	tp,0
 41c:	0ff010b7          	lui	ra,0xff01
 420:	ff008093          	add	ra,ra,-16 # ff00ff0 <_end+0xfefeff0>
 424:	00000013          	nop
 428:	f0f0f137          	lui	sp,0xf0f0f
 42c:	0f010113          	add	sp,sp,240 # f0f0f0f0 <_end+0xf0f0d0f0>
 430:	00000013          	nop
 434:	0020e733          	or	a4,ra,sp
 438:	00120213          	add	tp,tp,1 # 1 <_start+0x1>
 43c:	00200293          	li	t0,2
 440:	fc521ee3          	bne	tp,t0,41c <test_16+0x8>
 444:	fff103b7          	lui	t2,0xfff10
 448:	ff038393          	add	t2,t2,-16 # fff0fff0 <_end+0xfff0dff0>
 44c:	20771263          	bne	a4,t2,650 <fail>

00000450 <test_17>:
 450:	01100193          	li	gp,17
 454:	00000213          	li	tp,0
 458:	00ff00b7          	lui	ra,0xff0
 45c:	0ff08093          	add	ra,ra,255 # ff00ff <_end+0xfee0ff>
 460:	00000013          	nop
 464:	00000013          	nop
 468:	0f0f1137          	lui	sp,0xf0f1
 46c:	f0f10113          	add	sp,sp,-241 # f0f0f0f <_end+0xf0eef0f>
 470:	0020e733          	or	a4,ra,sp
 474:	00120213          	add	tp,tp,1 # 1 <_start+0x1>
 478:	00200293          	li	t0,2
 47c:	fc521ee3          	bne	tp,t0,458 <test_17+0x8>
 480:	0fff13b7          	lui	t2,0xfff1
 484:	fff38393          	add	t2,t2,-1 # fff0fff <_end+0xffeefff>
 488:	1c771463          	bne	a4,t2,650 <fail>

0000048c <test_18>:
 48c:	01200193          	li	gp,18
 490:	00000213          	li	tp,0
 494:	0f0f1137          	lui	sp,0xf0f1
 498:	f0f10113          	add	sp,sp,-241 # f0f0f0f <_end+0xf0eef0f>
 49c:	ff0100b7          	lui	ra,0xff010
 4a0:	f0008093          	add	ra,ra,-256 # ff00ff00 <_end+0xff00df00>
 4a4:	0020e733          	or	a4,ra,sp
 4a8:	00120213          	add	tp,tp,1 # 1 <_start+0x1>
 4ac:	00200293          	li	t0,2
 4b0:	fe5212e3          	bne	tp,t0,494 <test_18+0x8>
 4b4:	ff1003b7          	lui	t2,0xff100
 4b8:	f0f38393          	add	t2,t2,-241 # ff0fff0f <_end+0xff0fdf0f>
 4bc:	18771a63          	bne	a4,t2,650 <fail>

000004c0 <test_19>:
 4c0:	01300193          	li	gp,19
 4c4:	00000213          	li	tp,0
 4c8:	f0f0f137          	lui	sp,0xf0f0f
 4cc:	0f010113          	add	sp,sp,240 # f0f0f0f0 <_end+0xf0f0d0f0>
 4d0:	0ff010b7          	lui	ra,0xff01
 4d4:	ff008093          	add	ra,ra,-16 # ff00ff0 <_end+0xfefeff0>
 4d8:	00000013          	nop
 4dc:	0020e733          	or	a4,ra,sp
 4e0:	00120213          	add	tp,tp,1 # 1 <_start+0x1>
 4e4:	00200293          	li	t0,2
 4e8:	fe5210e3          	bne	tp,t0,4c8 <test_19+0x8>
 4ec:	fff103b7          	lui	t2,0xfff10
 4f0:	ff038393          	add	t2,t2,-16 # fff0fff0 <_end+0xfff0dff0>
 4f4:	14771e63          	bne	a4,t2,650 <fail>

000004f8 <test_20>:
 4f8:	01400193          	li	gp,20
 4fc:	00000213          	li	tp,0
 500:	0f0f1137          	lui	sp,0xf0f1
 504:	f0f10113          	add	sp,sp,-241 # f0f0f0f <_end+0xf0eef0f>
 508:	00ff00b7          	lui	ra,0xff0
 50c:	0ff08093          	add	ra,ra,255 # ff00ff <_end+0xfee0ff>
 510:	00000013          	nop
 514:	00000013          	nop
 518:	0020e733          	or	a4,ra,sp
 51c:	00120213          	add	tp,tp,1 # 1 <_start+0x1>
 520:	00200293          	li	t0,2
 524:	fc521ee3          	bne	tp,t0,500 <test_20+0x8>
 528:	0fff13b7          	lui	t2,0xfff1
 52c:	fff38393          	add	t2,t2,-1 # fff0fff <_end+0xffeefff>
 530:	12771063          	bne	a4,t2,650 <fail>

00000534 <test_21>:
 534:	01500193          	li	gp,21
 538:	00000213          	li	tp,0
 53c:	0f0f1137          	lui	sp,0xf0f1
 540:	f0f10113          	add	sp,sp,-241 # f0f0f0f <_end+0xf0eef0f>
 544:	00000013          	nop
 548:	ff0100b7          	lui	ra,0xff010
 54c:	f0008093          	add	ra,ra,-256 # ff00ff00 <_end+0xff00df00>
 550:	0020e733          	or	a4,ra,sp
 554:	00120213          	add	tp,tp,1 # 1 <_start+0x1>
 558:	00200293          	li	t0,2
 55c:	fe5210e3          	bne	tp,t0,53c <test_21+0x8>
 560:	ff1003b7          	lui	t2,0xff100
 564:	f0f38393          	add	t2,t2,-241 # ff0fff0f <_end+0xff0fdf0f>
 568:	0e771463          	bne	a4,t2,650 <fail>

0000056c <test_22>:
 56c:	01600193          	li	gp,22
 570:	00000213          	li	tp,0
 574:	f0f0f137          	lui	sp,0xf0f0f
 578:	0f010113          	add	sp,sp,240 # f0f0f0f0 <_end+0xf0f0d0f0>
 57c:	00000013          	nop
 580:	0ff010b7          	lui	ra,0xff01
 584:	ff008093          	add	ra,ra,-16 # ff00ff0 <_end+0xfefeff0>
 588:	00000013          	nop
 58c:	0020e733          	or	a4,ra,sp
 590:	00120213          	add	tp,tp,1 # 1 <_start+0x1>
 594:	00200293          	li	t0,2
 598:	fc521ee3          	bne	tp,t0,574 <test_22+0x8>
 59c:	fff103b7          	lui	t2,0xfff10
 5a0:	ff038393          	add	t2,t2,-16 # fff0fff0 <_end+0xfff0dff0>
 5a4:	0a771663          	bne	a4,t2,650 <fail>

000005a8 <test_23>:
 5a8:	01700193          	li	gp,23
 5ac:	00000213          	li	tp,0
 5b0:	0f0f1137          	lui	sp,0xf0f1
 5b4:	f0f10113          	add	sp,sp,-241 # f0f0f0f <_end+0xf0eef0f>
 5b8:	00000013          	nop
 5bc:	00000013          	nop
 5c0:	00ff00b7          	lui	ra,0xff0
 5c4:	0ff08093          	add	ra,ra,255 # ff00ff <_end+0xfee0ff>
 5c8:	0020e733          	or	a4,ra,sp
 5cc:	00120213          	add	tp,tp,1 # 1 <_start+0x1>
 5d0:	00200293          	li	t0,2
 5d4:	fc521ee3          	bne	tp,t0,5b0 <test_23+0x8>
 5d8:	0fff13b7          	lui	t2,0xfff1
 5dc:	fff38393          	add	t2,t2,-1 # fff0fff <_end+0xffeefff>
 5e0:	06771863          	bne	a4,t2,650 <fail>

000005e4 <test_24>:
 5e4:	01800193          	li	gp,24
 5e8:	ff0100b7          	lui	ra,0xff010
 5ec:	f0008093          	add	ra,ra,-256 # ff00ff00 <_end+0xff00df00>
 5f0:	00106133          	or	sp,zero,ra
 5f4:	ff0103b7          	lui	t2,0xff010
 5f8:	f0038393          	add	t2,t2,-256 # ff00ff00 <_end+0xff00df00>
 5fc:	04711a63          	bne	sp,t2,650 <fail>

00000600 <test_25>:
 600:	01900193          	li	gp,25
 604:	00ff00b7          	lui	ra,0xff0
 608:	0ff08093          	add	ra,ra,255 # ff00ff <_end+0xfee0ff>
 60c:	0000e133          	or	sp,ra,zero
 610:	00ff03b7          	lui	t2,0xff0
 614:	0ff38393          	add	t2,t2,255 # ff00ff <_end+0xfee0ff>
 618:	02711c63          	bne	sp,t2,650 <fail>

0000061c <test_26>:
 61c:	01a00193          	li	gp,26
 620:	000060b3          	or	ra,zero,zero
 624:	00000393          	li	t2,0
 628:	02709463          	bne	ra,t2,650 <fail>

0000062c <test_27>:
 62c:	01b00193          	li	gp,27
 630:	111110b7          	lui	ra,0x11111
 634:	11108093          	add	ra,ra,273 # 11111111 <_end+0x1110f111>
 638:	22222137          	lui	sp,0x22222
 63c:	22210113          	add	sp,sp,546 # 22222222 <_end+0x22220222>
 640:	0020e033          	or	zero,ra,sp
 644:	00000393          	li	t2,0
 648:	00701463          	bne	zero,t2,650 <fail>
 64c:	02301063          	bne	zero,gp,66c <pass>

00000650 <fail>:
 650:	0ff0000f          	fence
 654:	00018063          	beqz	gp,654 <fail+0x4>
 658:	00119193          	sll	gp,gp,0x1
 65c:	0011e193          	or	gp,gp,1
 660:	05d00893          	li	a7,93
 664:	00018513          	mv	a0,gp
 668:	00000073          	ecall

0000066c <pass>:
 66c:	0ff0000f          	fence
 670:	00100193          	li	gp,1
 674:	05d00893          	li	a7,93
 678:	00000513          	li	a0,0
 67c:	00000073          	ecall
 680:	c0001073          	unimp
	...
