
ori.elf:     file format elf32-littleriscv


Disassembly of section .text.init:

00000000 <_start>:
   0:	0040006f          	j	4 <reset_vector>

00000004 <reset_vector>:
   4:	00000093          	li	ra,0
   8:	00000113          	li	sp,0
   c:	00000193          	li	gp,0
  10:	00000213          	li	tp,0
  14:	00000293          	li	t0,0
  18:	00000313          	li	t1,0
  1c:	00000393          	li	t2,0
  20:	00000413          	li	s0,0
  24:	00000493          	li	s1,0
  28:	00000513          	li	a0,0
  2c:	00000593          	li	a1,0
  30:	00000613          	li	a2,0
  34:	00000693          	li	a3,0
  38:	00000713          	li	a4,0
  3c:	00000793          	li	a5,0
  40:	00000813          	li	a6,0
  44:	00000893          	li	a7,0
  48:	00000913          	li	s2,0
  4c:	00000993          	li	s3,0
  50:	00000a13          	li	s4,0
  54:	00000a93          	li	s5,0
  58:	00000b13          	li	s6,0
  5c:	00000b93          	li	s7,0
  60:	00000c13          	li	s8,0
  64:	00000c93          	li	s9,0
  68:	00000d13          	li	s10,0
  6c:	00000d93          	li	s11,0
  70:	00000e13          	li	t3,0
  74:	00000e93          	li	t4,0
  78:	00000f13          	li	t5,0
  7c:	00000f93          	li	t6,0
  80:	00000193          	li	gp,0
  84:	00100513          	li	a0,1
  88:	01f51513          	sll	a0,a0,0x1f
  8c:	02054263          	bltz	a0,b0 <reset_vector+0xac>
  90:	0ff0000f          	fence
  94:	04f00513          	li	a0,79
  98:	fea00fa3          	sb	a0,-1(zero) # ffffffff <_end+0xffffdfff>
  9c:	06b00513          	li	a0,107
  a0:	fea00fa3          	sb	a0,-1(zero) # ffffffff <_end+0xffffdfff>
  a4:	00a00513          	li	a0,10
  a8:	fea00fa3          	sb	a0,-1(zero) # ffffffff <_end+0xffffdfff>
  ac:	00100193          	li	gp,1
  b0:	30005073          	csrw	mstatus,0
  b4:	00000297          	auipc	t0,0x0
  b8:	01428293          	add	t0,t0,20 # c8 <test_2>
  bc:	34129073          	csrw	mepc,t0
  c0:	f1402573          	csrr	a0,mhartid
  c4:	30200073          	mret

000000c8 <test_2>:
  c8:	00200193          	li	gp,2
  cc:	ff0100b7          	lui	ra,0xff010
  d0:	f0008093          	add	ra,ra,-256 # ff00ff00 <_end+0xff00df00>
  d4:	f0f0e713          	or	a4,ra,-241
  d8:	f0f00393          	li	t2,-241
  dc:	1c771463          	bne	a4,t2,2a4 <fail>

000000e0 <test_3>:
  e0:	00300193          	li	gp,3
  e4:	0ff010b7          	lui	ra,0xff01
  e8:	ff008093          	add	ra,ra,-16 # ff00ff0 <_end+0xfefeff0>
  ec:	0f00e713          	or	a4,ra,240
  f0:	0ff013b7          	lui	t2,0xff01
  f4:	ff038393          	add	t2,t2,-16 # ff00ff0 <_end+0xfefeff0>
  f8:	1a771663          	bne	a4,t2,2a4 <fail>

000000fc <test_4>:
  fc:	00400193          	li	gp,4
 100:	00ff00b7          	lui	ra,0xff0
 104:	0ff08093          	add	ra,ra,255 # ff00ff <_end+0xfee0ff>
 108:	70f0e713          	or	a4,ra,1807
 10c:	00ff03b7          	lui	t2,0xff0
 110:	7ff38393          	add	t2,t2,2047 # ff07ff <_end+0xfee7ff>
 114:	18771863          	bne	a4,t2,2a4 <fail>

00000118 <test_5>:
 118:	00500193          	li	gp,5
 11c:	f00ff0b7          	lui	ra,0xf00ff
 120:	00f08093          	add	ra,ra,15 # f00ff00f <_end+0xf00fd00f>
 124:	0f00e713          	or	a4,ra,240
 128:	f00ff3b7          	lui	t2,0xf00ff
 12c:	0ff38393          	add	t2,t2,255 # f00ff0ff <_end+0xf00fd0ff>
 130:	16771a63          	bne	a4,t2,2a4 <fail>

00000134 <test_6>:
 134:	00600193          	li	gp,6
 138:	ff0100b7          	lui	ra,0xff010
 13c:	f0008093          	add	ra,ra,-256 # ff00ff00 <_end+0xff00df00>
 140:	0f00e093          	or	ra,ra,240
 144:	ff0103b7          	lui	t2,0xff010
 148:	ff038393          	add	t2,t2,-16 # ff00fff0 <_end+0xff00dff0>
 14c:	14709c63          	bne	ra,t2,2a4 <fail>

00000150 <test_7>:
 150:	00700193          	li	gp,7
 154:	00000213          	li	tp,0
 158:	0ff010b7          	lui	ra,0xff01
 15c:	ff008093          	add	ra,ra,-16 # ff00ff0 <_end+0xfefeff0>
 160:	0f00e713          	or	a4,ra,240
 164:	00070313          	mv	t1,a4
 168:	00120213          	add	tp,tp,1 # 1 <_start+0x1>
 16c:	00200293          	li	t0,2
 170:	fe5214e3          	bne	tp,t0,158 <test_7+0x8>
 174:	0ff013b7          	lui	t2,0xff01
 178:	ff038393          	add	t2,t2,-16 # ff00ff0 <_end+0xfefeff0>
 17c:	12731463          	bne	t1,t2,2a4 <fail>

00000180 <test_8>:
 180:	00800193          	li	gp,8
 184:	00000213          	li	tp,0
 188:	00ff00b7          	lui	ra,0xff0
 18c:	0ff08093          	add	ra,ra,255 # ff00ff <_end+0xfee0ff>
 190:	70f0e713          	or	a4,ra,1807
 194:	00000013          	nop
 198:	00070313          	mv	t1,a4
 19c:	00120213          	add	tp,tp,1 # 1 <_start+0x1>
 1a0:	00200293          	li	t0,2
 1a4:	fe5212e3          	bne	tp,t0,188 <test_8+0x8>
 1a8:	00ff03b7          	lui	t2,0xff0
 1ac:	7ff38393          	add	t2,t2,2047 # ff07ff <_end+0xfee7ff>
 1b0:	0e731a63          	bne	t1,t2,2a4 <fail>

000001b4 <test_9>:
 1b4:	00900193          	li	gp,9
 1b8:	00000213          	li	tp,0
 1bc:	f00ff0b7          	lui	ra,0xf00ff
 1c0:	00f08093          	add	ra,ra,15 # f00ff00f <_end+0xf00fd00f>
 1c4:	0f00e713          	or	a4,ra,240
 1c8:	00000013          	nop
 1cc:	00000013          	nop
 1d0:	00070313          	mv	t1,a4
 1d4:	00120213          	add	tp,tp,1 # 1 <_start+0x1>
 1d8:	00200293          	li	t0,2
 1dc:	fe5210e3          	bne	tp,t0,1bc <test_9+0x8>
 1e0:	f00ff3b7          	lui	t2,0xf00ff
 1e4:	0ff38393          	add	t2,t2,255 # f00ff0ff <_end+0xf00fd0ff>
 1e8:	0a731e63          	bne	t1,t2,2a4 <fail>

000001ec <test_10>:
 1ec:	00a00193          	li	gp,10
 1f0:	00000213          	li	tp,0
 1f4:	0ff010b7          	lui	ra,0xff01
 1f8:	ff008093          	add	ra,ra,-16 # ff00ff0 <_end+0xfefeff0>
 1fc:	0f00e713          	or	a4,ra,240
 200:	00120213          	add	tp,tp,1 # 1 <_start+0x1>
 204:	00200293          	li	t0,2
 208:	fe5216e3          	bne	tp,t0,1f4 <test_10+0x8>
 20c:	0ff013b7          	lui	t2,0xff01
 210:	ff038393          	add	t2,t2,-16 # ff00ff0 <_end+0xfefeff0>
 214:	08771863          	bne	a4,t2,2a4 <fail>

00000218 <test_11>:
 218:	00b00193          	li	gp,11
 21c:	00000213          	li	tp,0
 220:	00ff00b7          	lui	ra,0xff0
 224:	0ff08093          	add	ra,ra,255 # ff00ff <_end+0xfee0ff>
 228:	00000013          	nop
 22c:	f0f0e713          	or	a4,ra,-241
 230:	00120213          	add	tp,tp,1 # 1 <_start+0x1>
 234:	00200293          	li	t0,2
 238:	fe5214e3          	bne	tp,t0,220 <test_11+0x8>
 23c:	fff00393          	li	t2,-1
 240:	06771263          	bne	a4,t2,2a4 <fail>

00000244 <test_12>:
 244:	00c00193          	li	gp,12
 248:	00000213          	li	tp,0
 24c:	f00ff0b7          	lui	ra,0xf00ff
 250:	00f08093          	add	ra,ra,15 # f00ff00f <_end+0xf00fd00f>
 254:	00000013          	nop
 258:	00000013          	nop
 25c:	0f00e713          	or	a4,ra,240
 260:	00120213          	add	tp,tp,1 # 1 <_start+0x1>
 264:	00200293          	li	t0,2
 268:	fe5212e3          	bne	tp,t0,24c <test_12+0x8>
 26c:	f00ff3b7          	lui	t2,0xf00ff
 270:	0ff38393          	add	t2,t2,255 # f00ff0ff <_end+0xf00fd0ff>
 274:	02771863          	bne	a4,t2,2a4 <fail>

00000278 <test_13>:
 278:	00d00193          	li	gp,13
 27c:	0f006093          	or	ra,zero,240
 280:	0f000393          	li	t2,240
 284:	02709063          	bne	ra,t2,2a4 <fail>

00000288 <test_14>:
 288:	00e00193          	li	gp,14
 28c:	00ff00b7          	lui	ra,0xff0
 290:	0ff08093          	add	ra,ra,255 # ff00ff <_end+0xfee0ff>
 294:	70f0e013          	or	zero,ra,1807
 298:	00000393          	li	t2,0
 29c:	00701463          	bne	zero,t2,2a4 <fail>
 2a0:	02301263          	bne	zero,gp,2c4 <pass>

000002a4 <fail>:
 2a4:	0ff0000f          	fence
 2a8:	04e00513          	li	a0,78
 2ac:	fea00fa3          	sb	a0,-1(zero) # ffffffff <_end+0xffffdfff>
 2b0:	06f00513          	li	a0,111
 2b4:	fea00fa3          	sb	a0,-1(zero) # ffffffff <_end+0xffffdfff>
 2b8:	00a00513          	li	a0,10
 2bc:	fea00fa3          	sb	a0,-1(zero) # ffffffff <_end+0xffffdfff>
 2c0:	c0001073          	unimp

000002c4 <pass>:
 2c4:	0ff0000f          	fence
 2c8:	04f00513          	li	a0,79
 2cc:	fea00fa3          	sb	a0,-1(zero) # ffffffff <_end+0xffffdfff>
 2d0:	06b00513          	li	a0,107
 2d4:	fea00fa3          	sb	a0,-1(zero) # ffffffff <_end+0xffffdfff>
 2d8:	00a00513          	li	a0,10
 2dc:	fea00fa3          	sb	a0,-1(zero) # ffffffff <_end+0xffffdfff>
 2e0:	00100193          	li	gp,1
 2e4:	c0001073          	unimp
 2e8:	c0001073          	unimp
	...
