
ori.elf:     file format elf32-littleriscv


Disassembly of section .text.init:

00000000 <_start>:
   0:	0500006f          	j	50 <reset_vector>

00000004 <trap_vector>:
   4:	34202f73          	csrr	t5,mcause
   8:	00800f93          	li	t6,8
   c:	03ff0863          	beq	t5,t6,3c <write_tohost>
  10:	00900f93          	li	t6,9
  14:	03ff0463          	beq	t5,t6,3c <write_tohost>
  18:	00b00f93          	li	t6,11
  1c:	03ff0063          	beq	t5,t6,3c <write_tohost>
  20:	00000f13          	li	t5,0
  24:	000f0463          	beqz	t5,2c <trap_vector+0x28>
  28:	000f0067          	jr	t5
  2c:	34202f73          	csrr	t5,mcause
  30:	000f5463          	bgez	t5,38 <handle_exception>
  34:	0040006f          	j	38 <handle_exception>

00000038 <handle_exception>:
  38:	5391e193          	or	gp,gp,1337

0000003c <write_tohost>:
  3c:	00001f17          	auipc	t5,0x1
  40:	fc3f2223          	sw	gp,-60(t5) # 1000 <tohost>
  44:	00001f17          	auipc	t5,0x1
  48:	fc0f2023          	sw	zero,-64(t5) # 1004 <tohost+0x4>
  4c:	ff1ff06f          	j	3c <write_tohost>

00000050 <reset_vector>:
  50:	00000093          	li	ra,0
  54:	00000113          	li	sp,0
  58:	00000193          	li	gp,0
  5c:	00000213          	li	tp,0
  60:	00000293          	li	t0,0
  64:	00000313          	li	t1,0
  68:	00000393          	li	t2,0
  6c:	00000413          	li	s0,0
  70:	00000493          	li	s1,0
  74:	00000513          	li	a0,0
  78:	00000593          	li	a1,0
  7c:	00000613          	li	a2,0
  80:	00000693          	li	a3,0
  84:	00000713          	li	a4,0
  88:	00000793          	li	a5,0
  8c:	00000813          	li	a6,0
  90:	00000893          	li	a7,0
  94:	00000913          	li	s2,0
  98:	00000993          	li	s3,0
  9c:	00000a13          	li	s4,0
  a0:	00000a93          	li	s5,0
  a4:	00000b13          	li	s6,0
  a8:	00000b93          	li	s7,0
  ac:	00000c13          	li	s8,0
  b0:	00000c93          	li	s9,0
  b4:	00000d13          	li	s10,0
  b8:	00000d93          	li	s11,0
  bc:	00000e13          	li	t3,0
  c0:	00000e93          	li	t4,0
  c4:	00000f13          	li	t5,0
  c8:	00000f93          	li	t6,0
  cc:	f1402573          	csrr	a0,mhartid
  d0:	00051063          	bnez	a0,d0 <reset_vector+0x80>
  d4:	00000297          	auipc	t0,0x0
  d8:	01028293          	add	t0,t0,16 # e4 <reset_vector+0x94>
  dc:	30529073          	csrw	mtvec,t0
  e0:	74445073          	csrw	0x744,8
  e4:	00000297          	auipc	t0,0x0
  e8:	01028293          	add	t0,t0,16 # f4 <reset_vector+0xa4>
  ec:	30529073          	csrw	mtvec,t0
  f0:	18005073          	csrw	satp,0
  f4:	00000297          	auipc	t0,0x0
  f8:	02028293          	add	t0,t0,32 # 114 <reset_vector+0xc4>
  fc:	30529073          	csrw	mtvec,t0
 100:	800002b7          	lui	t0,0x80000
 104:	fff28293          	add	t0,t0,-1 # 7fffffff <_end+0x7fffdfff>
 108:	3b029073          	csrw	pmpaddr0,t0
 10c:	01f00293          	li	t0,31
 110:	3a029073          	csrw	pmpcfg0,t0
 114:	30405073          	csrw	mie,0
 118:	00000297          	auipc	t0,0x0
 11c:	01428293          	add	t0,t0,20 # 12c <reset_vector+0xdc>
 120:	30529073          	csrw	mtvec,t0
 124:	30205073          	csrw	medeleg,0
 128:	30305073          	csrw	mideleg,0
 12c:	00000193          	li	gp,0
 130:	00000297          	auipc	t0,0x0
 134:	ed428293          	add	t0,t0,-300 # 4 <trap_vector>
 138:	30529073          	csrw	mtvec,t0
 13c:	00100513          	li	a0,1
 140:	01f51513          	sll	a0,a0,0x1f
 144:	00054c63          	bltz	a0,15c <reset_vector+0x10c>
 148:	0ff0000f          	fence
 14c:	00100193          	li	gp,1
 150:	05d00893          	li	a7,93
 154:	00000513          	li	a0,0
 158:	00000073          	ecall
 15c:	00000293          	li	t0,0
 160:	00028a63          	beqz	t0,174 <reset_vector+0x124>
 164:	10529073          	csrw	stvec,t0
 168:	0000b2b7          	lui	t0,0xb
 16c:	10928293          	add	t0,t0,265 # b109 <_end+0x9109>
 170:	30229073          	csrw	medeleg,t0
 174:	30005073          	csrw	mstatus,0
 178:	00000297          	auipc	t0,0x0
 17c:	01428293          	add	t0,t0,20 # 18c <test_2>
 180:	34129073          	csrw	mepc,t0
 184:	f1402573          	csrr	a0,mhartid
 188:	30200073          	mret

0000018c <test_2>:
 18c:	00200193          	li	gp,2
 190:	ff0100b7          	lui	ra,0xff010
 194:	f0008093          	add	ra,ra,-256 # ff00ff00 <_end+0xff00df00>
 198:	f0f0e713          	or	a4,ra,-241
 19c:	f0f00393          	li	t2,-241
 1a0:	1c771463          	bne	a4,t2,368 <fail>

000001a4 <test_3>:
 1a4:	00300193          	li	gp,3
 1a8:	0ff010b7          	lui	ra,0xff01
 1ac:	ff008093          	add	ra,ra,-16 # ff00ff0 <_end+0xfefeff0>
 1b0:	0f00e713          	or	a4,ra,240
 1b4:	0ff013b7          	lui	t2,0xff01
 1b8:	ff038393          	add	t2,t2,-16 # ff00ff0 <_end+0xfefeff0>
 1bc:	1a771663          	bne	a4,t2,368 <fail>

000001c0 <test_4>:
 1c0:	00400193          	li	gp,4
 1c4:	00ff00b7          	lui	ra,0xff0
 1c8:	0ff08093          	add	ra,ra,255 # ff00ff <_end+0xfee0ff>
 1cc:	70f0e713          	or	a4,ra,1807
 1d0:	00ff03b7          	lui	t2,0xff0
 1d4:	7ff38393          	add	t2,t2,2047 # ff07ff <_end+0xfee7ff>
 1d8:	18771863          	bne	a4,t2,368 <fail>

000001dc <test_5>:
 1dc:	00500193          	li	gp,5
 1e0:	f00ff0b7          	lui	ra,0xf00ff
 1e4:	00f08093          	add	ra,ra,15 # f00ff00f <_end+0xf00fd00f>
 1e8:	0f00e713          	or	a4,ra,240
 1ec:	f00ff3b7          	lui	t2,0xf00ff
 1f0:	0ff38393          	add	t2,t2,255 # f00ff0ff <_end+0xf00fd0ff>
 1f4:	16771a63          	bne	a4,t2,368 <fail>

000001f8 <test_6>:
 1f8:	00600193          	li	gp,6
 1fc:	ff0100b7          	lui	ra,0xff010
 200:	f0008093          	add	ra,ra,-256 # ff00ff00 <_end+0xff00df00>
 204:	0f00e093          	or	ra,ra,240
 208:	ff0103b7          	lui	t2,0xff010
 20c:	ff038393          	add	t2,t2,-16 # ff00fff0 <_end+0xff00dff0>
 210:	14709c63          	bne	ra,t2,368 <fail>

00000214 <test_7>:
 214:	00700193          	li	gp,7
 218:	00000213          	li	tp,0
 21c:	0ff010b7          	lui	ra,0xff01
 220:	ff008093          	add	ra,ra,-16 # ff00ff0 <_end+0xfefeff0>
 224:	0f00e713          	or	a4,ra,240
 228:	00070313          	mv	t1,a4
 22c:	00120213          	add	tp,tp,1 # 1 <_start+0x1>
 230:	00200293          	li	t0,2
 234:	fe5214e3          	bne	tp,t0,21c <test_7+0x8>
 238:	0ff013b7          	lui	t2,0xff01
 23c:	ff038393          	add	t2,t2,-16 # ff00ff0 <_end+0xfefeff0>
 240:	12731463          	bne	t1,t2,368 <fail>

00000244 <test_8>:
 244:	00800193          	li	gp,8
 248:	00000213          	li	tp,0
 24c:	00ff00b7          	lui	ra,0xff0
 250:	0ff08093          	add	ra,ra,255 # ff00ff <_end+0xfee0ff>
 254:	70f0e713          	or	a4,ra,1807
 258:	00000013          	nop
 25c:	00070313          	mv	t1,a4
 260:	00120213          	add	tp,tp,1 # 1 <_start+0x1>
 264:	00200293          	li	t0,2
 268:	fe5212e3          	bne	tp,t0,24c <test_8+0x8>
 26c:	00ff03b7          	lui	t2,0xff0
 270:	7ff38393          	add	t2,t2,2047 # ff07ff <_end+0xfee7ff>
 274:	0e731a63          	bne	t1,t2,368 <fail>

00000278 <test_9>:
 278:	00900193          	li	gp,9
 27c:	00000213          	li	tp,0
 280:	f00ff0b7          	lui	ra,0xf00ff
 284:	00f08093          	add	ra,ra,15 # f00ff00f <_end+0xf00fd00f>
 288:	0f00e713          	or	a4,ra,240
 28c:	00000013          	nop
 290:	00000013          	nop
 294:	00070313          	mv	t1,a4
 298:	00120213          	add	tp,tp,1 # 1 <_start+0x1>
 29c:	00200293          	li	t0,2
 2a0:	fe5210e3          	bne	tp,t0,280 <test_9+0x8>
 2a4:	f00ff3b7          	lui	t2,0xf00ff
 2a8:	0ff38393          	add	t2,t2,255 # f00ff0ff <_end+0xf00fd0ff>
 2ac:	0a731e63          	bne	t1,t2,368 <fail>

000002b0 <test_10>:
 2b0:	00a00193          	li	gp,10
 2b4:	00000213          	li	tp,0
 2b8:	0ff010b7          	lui	ra,0xff01
 2bc:	ff008093          	add	ra,ra,-16 # ff00ff0 <_end+0xfefeff0>
 2c0:	0f00e713          	or	a4,ra,240
 2c4:	00120213          	add	tp,tp,1 # 1 <_start+0x1>
 2c8:	00200293          	li	t0,2
 2cc:	fe5216e3          	bne	tp,t0,2b8 <test_10+0x8>
 2d0:	0ff013b7          	lui	t2,0xff01
 2d4:	ff038393          	add	t2,t2,-16 # ff00ff0 <_end+0xfefeff0>
 2d8:	08771863          	bne	a4,t2,368 <fail>

000002dc <test_11>:
 2dc:	00b00193          	li	gp,11
 2e0:	00000213          	li	tp,0
 2e4:	00ff00b7          	lui	ra,0xff0
 2e8:	0ff08093          	add	ra,ra,255 # ff00ff <_end+0xfee0ff>
 2ec:	00000013          	nop
 2f0:	f0f0e713          	or	a4,ra,-241
 2f4:	00120213          	add	tp,tp,1 # 1 <_start+0x1>
 2f8:	00200293          	li	t0,2
 2fc:	fe5214e3          	bne	tp,t0,2e4 <test_11+0x8>
 300:	fff00393          	li	t2,-1
 304:	06771263          	bne	a4,t2,368 <fail>

00000308 <test_12>:
 308:	00c00193          	li	gp,12
 30c:	00000213          	li	tp,0
 310:	f00ff0b7          	lui	ra,0xf00ff
 314:	00f08093          	add	ra,ra,15 # f00ff00f <_end+0xf00fd00f>
 318:	00000013          	nop
 31c:	00000013          	nop
 320:	0f00e713          	or	a4,ra,240
 324:	00120213          	add	tp,tp,1 # 1 <_start+0x1>
 328:	00200293          	li	t0,2
 32c:	fe5212e3          	bne	tp,t0,310 <test_12+0x8>
 330:	f00ff3b7          	lui	t2,0xf00ff
 334:	0ff38393          	add	t2,t2,255 # f00ff0ff <_end+0xf00fd0ff>
 338:	02771863          	bne	a4,t2,368 <fail>

0000033c <test_13>:
 33c:	00d00193          	li	gp,13
 340:	0f006093          	or	ra,zero,240
 344:	0f000393          	li	t2,240
 348:	02709063          	bne	ra,t2,368 <fail>

0000034c <test_14>:
 34c:	00e00193          	li	gp,14
 350:	00ff00b7          	lui	ra,0xff0
 354:	0ff08093          	add	ra,ra,255 # ff00ff <_end+0xfee0ff>
 358:	70f0e013          	or	zero,ra,1807
 35c:	00000393          	li	t2,0
 360:	00701463          	bne	zero,t2,368 <fail>
 364:	02301063          	bne	zero,gp,384 <pass>

00000368 <fail>:
 368:	0ff0000f          	fence
 36c:	00018063          	beqz	gp,36c <fail+0x4>
 370:	00119193          	sll	gp,gp,0x1
 374:	0011e193          	or	gp,gp,1
 378:	05d00893          	li	a7,93
 37c:	00018513          	mv	a0,gp
 380:	00000073          	ecall

00000384 <pass>:
 384:	0ff0000f          	fence
 388:	00100193          	li	gp,1
 38c:	05d00893          	li	a7,93
 390:	00000513          	li	a0,0
 394:	00000073          	ecall
 398:	c0001073          	unimp
	...
