
sb.elf:     file format elf32-littleriscv


Disassembly of section .text.init:

00000000 <_start>:
   0:	0500006f          	j	50 <reset_vector>

00000004 <trap_vector>:
   4:	34202f73          	csrr	t5,mcause
   8:	00800f93          	li	t6,8
   c:	03ff0863          	beq	t5,t6,3c <write_tohost>
  10:	00900f93          	li	t6,9
  14:	03ff0463          	beq	t5,t6,3c <write_tohost>
  18:	00b00f93          	li	t6,11
  1c:	03ff0063          	beq	t5,t6,3c <write_tohost>
  20:	00000f13          	li	t5,0
  24:	000f0463          	beqz	t5,2c <trap_vector+0x28>
  28:	000f0067          	jr	t5
  2c:	34202f73          	csrr	t5,mcause
  30:	000f5463          	bgez	t5,38 <handle_exception>
  34:	0040006f          	j	38 <handle_exception>

00000038 <handle_exception>:
  38:	5391e193          	or	gp,gp,1337

0000003c <write_tohost>:
  3c:	00001f17          	auipc	t5,0x1
  40:	fc3f2223          	sw	gp,-60(t5) # 1000 <tohost>
  44:	00001f17          	auipc	t5,0x1
  48:	fc0f2023          	sw	zero,-64(t5) # 1004 <tohost+0x4>
  4c:	ff1ff06f          	j	3c <write_tohost>

00000050 <reset_vector>:
  50:	00000093          	li	ra,0
  54:	00000113          	li	sp,0
  58:	00000193          	li	gp,0
  5c:	00000213          	li	tp,0
  60:	00000293          	li	t0,0
  64:	00000313          	li	t1,0
  68:	00000393          	li	t2,0
  6c:	00000413          	li	s0,0
  70:	00000493          	li	s1,0
  74:	00000513          	li	a0,0
  78:	00000593          	li	a1,0
  7c:	00000613          	li	a2,0
  80:	00000693          	li	a3,0
  84:	00000713          	li	a4,0
  88:	00000793          	li	a5,0
  8c:	00000813          	li	a6,0
  90:	00000893          	li	a7,0
  94:	00000913          	li	s2,0
  98:	00000993          	li	s3,0
  9c:	00000a13          	li	s4,0
  a0:	00000a93          	li	s5,0
  a4:	00000b13          	li	s6,0
  a8:	00000b93          	li	s7,0
  ac:	00000c13          	li	s8,0
  b0:	00000c93          	li	s9,0
  b4:	00000d13          	li	s10,0
  b8:	00000d93          	li	s11,0
  bc:	00000e13          	li	t3,0
  c0:	00000e93          	li	t4,0
  c4:	00000f13          	li	t5,0
  c8:	00000f93          	li	t6,0
  cc:	f1402573          	csrr	a0,mhartid
  d0:	00051063          	bnez	a0,d0 <reset_vector+0x80>
  d4:	00000297          	auipc	t0,0x0
  d8:	01028293          	add	t0,t0,16 # e4 <reset_vector+0x94>
  dc:	30529073          	csrw	mtvec,t0
  e0:	74445073          	csrw	0x744,8
  e4:	00000297          	auipc	t0,0x0
  e8:	01028293          	add	t0,t0,16 # f4 <reset_vector+0xa4>
  ec:	30529073          	csrw	mtvec,t0
  f0:	18005073          	csrw	satp,0
  f4:	00000297          	auipc	t0,0x0
  f8:	02028293          	add	t0,t0,32 # 114 <reset_vector+0xc4>
  fc:	30529073          	csrw	mtvec,t0
 100:	800002b7          	lui	t0,0x80000
 104:	fff28293          	add	t0,t0,-1 # 7fffffff <_end+0x7fffdfef>
 108:	3b029073          	csrw	pmpaddr0,t0
 10c:	01f00293          	li	t0,31
 110:	3a029073          	csrw	pmpcfg0,t0
 114:	30405073          	csrw	mie,0
 118:	00000297          	auipc	t0,0x0
 11c:	01428293          	add	t0,t0,20 # 12c <reset_vector+0xdc>
 120:	30529073          	csrw	mtvec,t0
 124:	30205073          	csrw	medeleg,0
 128:	30305073          	csrw	mideleg,0
 12c:	00000193          	li	gp,0
 130:	00000297          	auipc	t0,0x0
 134:	ed428293          	add	t0,t0,-300 # 4 <trap_vector>
 138:	30529073          	csrw	mtvec,t0
 13c:	00100513          	li	a0,1
 140:	01f51513          	sll	a0,a0,0x1f
 144:	00054c63          	bltz	a0,15c <reset_vector+0x10c>
 148:	0ff0000f          	fence
 14c:	00100193          	li	gp,1
 150:	05d00893          	li	a7,93
 154:	00000513          	li	a0,0
 158:	00000073          	ecall
 15c:	00000293          	li	t0,0
 160:	00028a63          	beqz	t0,174 <reset_vector+0x124>
 164:	10529073          	csrw	stvec,t0
 168:	0000b2b7          	lui	t0,0xb
 16c:	10928293          	add	t0,t0,265 # b109 <_end+0x90f9>
 170:	30229073          	csrw	medeleg,t0
 174:	30005073          	csrw	mstatus,0
 178:	00000297          	auipc	t0,0x0
 17c:	01428293          	add	t0,t0,20 # 18c <test_2>
 180:	34129073          	csrw	mepc,t0
 184:	f1402573          	csrr	a0,mhartid
 188:	30200073          	mret

0000018c <test_2>:
 18c:	00200193          	li	gp,2
 190:	00002097          	auipc	ra,0x2
 194:	e7008093          	add	ra,ra,-400 # 2000 <begin_signature>
 198:	faa00113          	li	sp,-86
 19c:	00000797          	auipc	a5,0x0
 1a0:	01478793          	add	a5,a5,20 # 1b0 <test_2+0x24>
 1a4:	00208023          	sb	sp,0(ra)
 1a8:	00008703          	lb	a4,0(ra)
 1ac:	0080006f          	j	1b4 <test_2+0x28>
 1b0:	00010713          	mv	a4,sp
 1b4:	faa00393          	li	t2,-86
 1b8:	44771463          	bne	a4,t2,600 <fail>

000001bc <test_3>:
 1bc:	00300193          	li	gp,3
 1c0:	00002097          	auipc	ra,0x2
 1c4:	e4008093          	add	ra,ra,-448 # 2000 <begin_signature>
 1c8:	00000113          	li	sp,0
 1cc:	00000797          	auipc	a5,0x0
 1d0:	01478793          	add	a5,a5,20 # 1e0 <test_3+0x24>
 1d4:	002080a3          	sb	sp,1(ra)
 1d8:	00108703          	lb	a4,1(ra)
 1dc:	0080006f          	j	1e4 <test_3+0x28>
 1e0:	00010713          	mv	a4,sp
 1e4:	00000393          	li	t2,0
 1e8:	40771c63          	bne	a4,t2,600 <fail>

000001ec <test_4>:
 1ec:	00400193          	li	gp,4
 1f0:	00002097          	auipc	ra,0x2
 1f4:	e1008093          	add	ra,ra,-496 # 2000 <begin_signature>
 1f8:	fffff137          	lui	sp,0xfffff
 1fc:	fa010113          	add	sp,sp,-96 # ffffefa0 <_end+0xffffcf90>
 200:	00000797          	auipc	a5,0x0
 204:	01478793          	add	a5,a5,20 # 214 <test_4+0x28>
 208:	00208123          	sb	sp,2(ra)
 20c:	00209703          	lh	a4,2(ra)
 210:	0080006f          	j	218 <test_4+0x2c>
 214:	00010713          	mv	a4,sp
 218:	fffff3b7          	lui	t2,0xfffff
 21c:	fa038393          	add	t2,t2,-96 # ffffefa0 <_end+0xffffcf90>
 220:	3e771063          	bne	a4,t2,600 <fail>

00000224 <test_5>:
 224:	00500193          	li	gp,5
 228:	00002097          	auipc	ra,0x2
 22c:	dd808093          	add	ra,ra,-552 # 2000 <begin_signature>
 230:	00a00113          	li	sp,10
 234:	00000797          	auipc	a5,0x0
 238:	01478793          	add	a5,a5,20 # 248 <test_5+0x24>
 23c:	002081a3          	sb	sp,3(ra)
 240:	00308703          	lb	a4,3(ra)
 244:	0080006f          	j	24c <test_5+0x28>
 248:	00010713          	mv	a4,sp
 24c:	00a00393          	li	t2,10
 250:	3a771863          	bne	a4,t2,600 <fail>

00000254 <test_6>:
 254:	00600193          	li	gp,6
 258:	00002097          	auipc	ra,0x2
 25c:	daf08093          	add	ra,ra,-593 # 2007 <tdat8>
 260:	faa00113          	li	sp,-86
 264:	00000797          	auipc	a5,0x0
 268:	01478793          	add	a5,a5,20 # 278 <test_6+0x24>
 26c:	fe208ea3          	sb	sp,-3(ra)
 270:	ffd08703          	lb	a4,-3(ra)
 274:	0080006f          	j	27c <test_6+0x28>
 278:	00010713          	mv	a4,sp
 27c:	faa00393          	li	t2,-86
 280:	38771063          	bne	a4,t2,600 <fail>

00000284 <test_7>:
 284:	00700193          	li	gp,7
 288:	00002097          	auipc	ra,0x2
 28c:	d7f08093          	add	ra,ra,-641 # 2007 <tdat8>
 290:	00000113          	li	sp,0
 294:	00000797          	auipc	a5,0x0
 298:	01478793          	add	a5,a5,20 # 2a8 <test_7+0x24>
 29c:	fe208f23          	sb	sp,-2(ra)
 2a0:	ffe08703          	lb	a4,-2(ra)
 2a4:	0080006f          	j	2ac <test_7+0x28>
 2a8:	00010713          	mv	a4,sp
 2ac:	00000393          	li	t2,0
 2b0:	34771863          	bne	a4,t2,600 <fail>

000002b4 <test_8>:
 2b4:	00800193          	li	gp,8
 2b8:	00002097          	auipc	ra,0x2
 2bc:	d4f08093          	add	ra,ra,-689 # 2007 <tdat8>
 2c0:	fa000113          	li	sp,-96
 2c4:	00000797          	auipc	a5,0x0
 2c8:	01478793          	add	a5,a5,20 # 2d8 <test_8+0x24>
 2cc:	fe208fa3          	sb	sp,-1(ra)
 2d0:	fff08703          	lb	a4,-1(ra)
 2d4:	0080006f          	j	2dc <test_8+0x28>
 2d8:	00010713          	mv	a4,sp
 2dc:	fa000393          	li	t2,-96
 2e0:	32771063          	bne	a4,t2,600 <fail>

000002e4 <test_9>:
 2e4:	00900193          	li	gp,9
 2e8:	00002097          	auipc	ra,0x2
 2ec:	d1f08093          	add	ra,ra,-737 # 2007 <tdat8>
 2f0:	00a00113          	li	sp,10
 2f4:	00000797          	auipc	a5,0x0
 2f8:	01478793          	add	a5,a5,20 # 308 <test_9+0x24>
 2fc:	00208023          	sb	sp,0(ra)
 300:	00008703          	lb	a4,0(ra)
 304:	0080006f          	j	30c <test_9+0x28>
 308:	00010713          	mv	a4,sp
 30c:	00a00393          	li	t2,10
 310:	2e771863          	bne	a4,t2,600 <fail>

00000314 <test_10>:
 314:	00a00193          	li	gp,10
 318:	00002097          	auipc	ra,0x2
 31c:	cf008093          	add	ra,ra,-784 # 2008 <tdat9>
 320:	12345137          	lui	sp,0x12345
 324:	67810113          	add	sp,sp,1656 # 12345678 <_end+0x12343668>
 328:	fe008213          	add	tp,ra,-32
 32c:	02220023          	sb	sp,32(tp) # 20 <trap_vector+0x1c>
 330:	00008283          	lb	t0,0(ra)
 334:	07800393          	li	t2,120
 338:	2c729463          	bne	t0,t2,600 <fail>

0000033c <test_11>:
 33c:	00b00193          	li	gp,11
 340:	00002097          	auipc	ra,0x2
 344:	cc808093          	add	ra,ra,-824 # 2008 <tdat9>
 348:	00003137          	lui	sp,0x3
 34c:	09810113          	add	sp,sp,152 # 3098 <_end+0x1088>
 350:	ffa08093          	add	ra,ra,-6
 354:	002083a3          	sb	sp,7(ra)
 358:	00002217          	auipc	tp,0x2
 35c:	cb120213          	add	tp,tp,-847 # 2009 <tdat10>
 360:	00020283          	lb	t0,0(tp) # 0 <_start>
 364:	f9800393          	li	t2,-104
 368:	28729c63          	bne	t0,t2,600 <fail>

0000036c <test_12>:
 36c:	00c00193          	li	gp,12
 370:	00000213          	li	tp,0
 374:	fdd00093          	li	ra,-35
 378:	00002117          	auipc	sp,0x2
 37c:	c8810113          	add	sp,sp,-888 # 2000 <begin_signature>
 380:	00110023          	sb	ra,0(sp)
 384:	00010703          	lb	a4,0(sp)
 388:	fdd00393          	li	t2,-35
 38c:	26771a63          	bne	a4,t2,600 <fail>
 390:	00120213          	add	tp,tp,1 # 1 <_start+0x1>
 394:	00200293          	li	t0,2
 398:	fc521ee3          	bne	tp,t0,374 <test_12+0x8>

0000039c <test_13>:
 39c:	00d00193          	li	gp,13
 3a0:	00000213          	li	tp,0
 3a4:	fcd00093          	li	ra,-51
 3a8:	00002117          	auipc	sp,0x2
 3ac:	c5810113          	add	sp,sp,-936 # 2000 <begin_signature>
 3b0:	00000013          	nop
 3b4:	001100a3          	sb	ra,1(sp)
 3b8:	00110703          	lb	a4,1(sp)
 3bc:	fcd00393          	li	t2,-51
 3c0:	24771063          	bne	a4,t2,600 <fail>
 3c4:	00120213          	add	tp,tp,1 # 1 <_start+0x1>
 3c8:	00200293          	li	t0,2
 3cc:	fc521ce3          	bne	tp,t0,3a4 <test_13+0x8>

000003d0 <test_14>:
 3d0:	00e00193          	li	gp,14
 3d4:	00000213          	li	tp,0
 3d8:	fcc00093          	li	ra,-52
 3dc:	00002117          	auipc	sp,0x2
 3e0:	c2410113          	add	sp,sp,-988 # 2000 <begin_signature>
 3e4:	00000013          	nop
 3e8:	00000013          	nop
 3ec:	00110123          	sb	ra,2(sp)
 3f0:	00210703          	lb	a4,2(sp)
 3f4:	fcc00393          	li	t2,-52
 3f8:	20771463          	bne	a4,t2,600 <fail>
 3fc:	00120213          	add	tp,tp,1 # 1 <_start+0x1>
 400:	00200293          	li	t0,2
 404:	fc521ae3          	bne	tp,t0,3d8 <test_14+0x8>

00000408 <test_15>:
 408:	00f00193          	li	gp,15
 40c:	00000213          	li	tp,0
 410:	fbc00093          	li	ra,-68
 414:	00000013          	nop
 418:	00002117          	auipc	sp,0x2
 41c:	be810113          	add	sp,sp,-1048 # 2000 <begin_signature>
 420:	001101a3          	sb	ra,3(sp)
 424:	00310703          	lb	a4,3(sp)
 428:	fbc00393          	li	t2,-68
 42c:	1c771a63          	bne	a4,t2,600 <fail>
 430:	00120213          	add	tp,tp,1 # 1 <_start+0x1>
 434:	00200293          	li	t0,2
 438:	fc521ce3          	bne	tp,t0,410 <test_15+0x8>

0000043c <test_16>:
 43c:	01000193          	li	gp,16
 440:	00000213          	li	tp,0
 444:	fbb00093          	li	ra,-69
 448:	00000013          	nop
 44c:	00002117          	auipc	sp,0x2
 450:	bb410113          	add	sp,sp,-1100 # 2000 <begin_signature>
 454:	00000013          	nop
 458:	00110223          	sb	ra,4(sp)
 45c:	00410703          	lb	a4,4(sp)
 460:	fbb00393          	li	t2,-69
 464:	18771e63          	bne	a4,t2,600 <fail>
 468:	00120213          	add	tp,tp,1 # 1 <_start+0x1>
 46c:	00200293          	li	t0,2
 470:	fc521ae3          	bne	tp,t0,444 <test_16+0x8>

00000474 <test_17>:
 474:	01100193          	li	gp,17
 478:	00000213          	li	tp,0
 47c:	fab00093          	li	ra,-85
 480:	00000013          	nop
 484:	00000013          	nop
 488:	00002117          	auipc	sp,0x2
 48c:	b7810113          	add	sp,sp,-1160 # 2000 <begin_signature>
 490:	001102a3          	sb	ra,5(sp)
 494:	00510703          	lb	a4,5(sp)
 498:	fab00393          	li	t2,-85
 49c:	16771263          	bne	a4,t2,600 <fail>
 4a0:	00120213          	add	tp,tp,1 # 1 <_start+0x1>
 4a4:	00200293          	li	t0,2
 4a8:	fc521ae3          	bne	tp,t0,47c <test_17+0x8>

000004ac <test_18>:
 4ac:	01200193          	li	gp,18
 4b0:	00000213          	li	tp,0
 4b4:	00002117          	auipc	sp,0x2
 4b8:	b4c10113          	add	sp,sp,-1204 # 2000 <begin_signature>
 4bc:	03300093          	li	ra,51
 4c0:	00110023          	sb	ra,0(sp)
 4c4:	00010703          	lb	a4,0(sp)
 4c8:	03300393          	li	t2,51
 4cc:	12771a63          	bne	a4,t2,600 <fail>
 4d0:	00120213          	add	tp,tp,1 # 1 <_start+0x1>
 4d4:	00200293          	li	t0,2
 4d8:	fc521ee3          	bne	tp,t0,4b4 <test_18+0x8>

000004dc <test_19>:
 4dc:	01300193          	li	gp,19
 4e0:	00000213          	li	tp,0
 4e4:	00002117          	auipc	sp,0x2
 4e8:	b1c10113          	add	sp,sp,-1252 # 2000 <begin_signature>
 4ec:	02300093          	li	ra,35
 4f0:	00000013          	nop
 4f4:	001100a3          	sb	ra,1(sp)
 4f8:	00110703          	lb	a4,1(sp)
 4fc:	02300393          	li	t2,35
 500:	10771063          	bne	a4,t2,600 <fail>
 504:	00120213          	add	tp,tp,1 # 1 <_start+0x1>
 508:	00200293          	li	t0,2
 50c:	fc521ce3          	bne	tp,t0,4e4 <test_19+0x8>

00000510 <test_20>:
 510:	01400193          	li	gp,20
 514:	00000213          	li	tp,0
 518:	00002117          	auipc	sp,0x2
 51c:	ae810113          	add	sp,sp,-1304 # 2000 <begin_signature>
 520:	02200093          	li	ra,34
 524:	00000013          	nop
 528:	00000013          	nop
 52c:	00110123          	sb	ra,2(sp)
 530:	00210703          	lb	a4,2(sp)
 534:	02200393          	li	t2,34
 538:	0c771463          	bne	a4,t2,600 <fail>
 53c:	00120213          	add	tp,tp,1 # 1 <_start+0x1>
 540:	00200293          	li	t0,2
 544:	fc521ae3          	bne	tp,t0,518 <test_20+0x8>

00000548 <test_21>:
 548:	01500193          	li	gp,21
 54c:	00000213          	li	tp,0
 550:	00002117          	auipc	sp,0x2
 554:	ab010113          	add	sp,sp,-1360 # 2000 <begin_signature>
 558:	00000013          	nop
 55c:	01200093          	li	ra,18
 560:	001101a3          	sb	ra,3(sp)
 564:	00310703          	lb	a4,3(sp)
 568:	01200393          	li	t2,18
 56c:	08771a63          	bne	a4,t2,600 <fail>
 570:	00120213          	add	tp,tp,1 # 1 <_start+0x1>
 574:	00200293          	li	t0,2
 578:	fc521ce3          	bne	tp,t0,550 <test_21+0x8>

0000057c <test_22>:
 57c:	01600193          	li	gp,22
 580:	00000213          	li	tp,0
 584:	00002117          	auipc	sp,0x2
 588:	a7c10113          	add	sp,sp,-1412 # 2000 <begin_signature>
 58c:	00000013          	nop
 590:	01100093          	li	ra,17
 594:	00000013          	nop
 598:	00110223          	sb	ra,4(sp)
 59c:	00410703          	lb	a4,4(sp)
 5a0:	01100393          	li	t2,17
 5a4:	04771e63          	bne	a4,t2,600 <fail>
 5a8:	00120213          	add	tp,tp,1 # 1 <_start+0x1>
 5ac:	00200293          	li	t0,2
 5b0:	fc521ae3          	bne	tp,t0,584 <test_22+0x8>

000005b4 <test_23>:
 5b4:	01700193          	li	gp,23
 5b8:	00000213          	li	tp,0
 5bc:	00002117          	auipc	sp,0x2
 5c0:	a4410113          	add	sp,sp,-1468 # 2000 <begin_signature>
 5c4:	00000013          	nop
 5c8:	00000013          	nop
 5cc:	00100093          	li	ra,1
 5d0:	001102a3          	sb	ra,5(sp)
 5d4:	00510703          	lb	a4,5(sp)
 5d8:	00100393          	li	t2,1
 5dc:	02771263          	bne	a4,t2,600 <fail>
 5e0:	00120213          	add	tp,tp,1 # 1 <_start+0x1>
 5e4:	00200293          	li	t0,2
 5e8:	fc521ae3          	bne	tp,t0,5bc <test_23+0x8>
 5ec:	0ef00513          	li	a0,239
 5f0:	00002597          	auipc	a1,0x2
 5f4:	a1058593          	add	a1,a1,-1520 # 2000 <begin_signature>
 5f8:	00a581a3          	sb	a0,3(a1)
 5fc:	02301063          	bne	zero,gp,61c <pass>

00000600 <fail>:
 600:	0ff0000f          	fence
 604:	00018063          	beqz	gp,604 <fail+0x4>
 608:	00119193          	sll	gp,gp,0x1
 60c:	0011e193          	or	gp,gp,1
 610:	05d00893          	li	a7,93
 614:	00018513          	mv	a0,gp
 618:	00000073          	ecall

0000061c <pass>:
 61c:	0ff0000f          	fence
 620:	00100193          	li	gp,1
 624:	05d00893          	li	a7,93
 628:	00000513          	li	a0,0
 62c:	00000073          	ecall
 630:	c0001073          	unimp
	...
