
sh.elf:     file format elf32-littleriscv


Disassembly of section .text.init:

00000000 <_start>:
   0:	0040006f          	j	4 <reset_vector>

00000004 <reset_vector>:
   4:	00000093          	li	ra,0
   8:	00000113          	li	sp,0
   c:	00000193          	li	gp,0
  10:	00000213          	li	tp,0
  14:	00000293          	li	t0,0
  18:	00000313          	li	t1,0
  1c:	00000393          	li	t2,0
  20:	00000413          	li	s0,0
  24:	00000493          	li	s1,0
  28:	00000513          	li	a0,0
  2c:	00000593          	li	a1,0
  30:	00000613          	li	a2,0
  34:	00000693          	li	a3,0
  38:	00000713          	li	a4,0
  3c:	00000793          	li	a5,0
  40:	00000813          	li	a6,0
  44:	00000893          	li	a7,0
  48:	00000913          	li	s2,0
  4c:	00000993          	li	s3,0
  50:	00000a13          	li	s4,0
  54:	00000a93          	li	s5,0
  58:	00000b13          	li	s6,0
  5c:	00000b93          	li	s7,0
  60:	00000c13          	li	s8,0
  64:	00000c93          	li	s9,0
  68:	00000d13          	li	s10,0
  6c:	00000d93          	li	s11,0
  70:	00000e13          	li	t3,0
  74:	00000e93          	li	t4,0
  78:	00000f13          	li	t5,0
  7c:	00000f93          	li	t6,0
  80:	00000193          	li	gp,0
  84:	00100513          	li	a0,1
  88:	01f51513          	sll	a0,a0,0x1f
  8c:	02054263          	bltz	a0,b0 <reset_vector+0xac>
  90:	0ff0000f          	fence
  94:	04f00513          	li	a0,79
  98:	fea00fa3          	sb	a0,-1(zero) # ffffffff <_end+0xffffcfff>
  9c:	06b00513          	li	a0,107
  a0:	fea00fa3          	sb	a0,-1(zero) # ffffffff <_end+0xffffcfff>
  a4:	00a00513          	li	a0,10
  a8:	fea00fa3          	sb	a0,-1(zero) # ffffffff <_end+0xffffcfff>
  ac:	00100193          	li	gp,1
  b0:	30005073          	csrw	mstatus,0
  b4:	00000297          	auipc	t0,0x0
  b8:	01428293          	add	t0,t0,20 # c8 <test_2>
  bc:	34129073          	csrw	mepc,t0
  c0:	f1402573          	csrr	a0,mhartid
  c4:	30200073          	mret

000000c8 <test_2>:
  c8:	00200193          	li	gp,2
  cc:	00002097          	auipc	ra,0x2
  d0:	f3408093          	add	ra,ra,-204 # 2000 <begin_signature>
  d4:	0aa00113          	li	sp,170
  d8:	00000797          	auipc	a5,0x0
  dc:	01478793          	add	a5,a5,20 # ec <test_2+0x24>
  e0:	00209023          	sh	sp,0(ra)
  e4:	00009703          	lh	a4,0(ra)
  e8:	0080006f          	j	f0 <test_2+0x28>
  ec:	00010713          	mv	a4,sp
  f0:	0aa00393          	li	t2,170
  f4:	4c771663          	bne	a4,t2,5c0 <fail>

000000f8 <test_3>:
  f8:	00300193          	li	gp,3
  fc:	00002097          	auipc	ra,0x2
 100:	f0408093          	add	ra,ra,-252 # 2000 <begin_signature>
 104:	ffffb137          	lui	sp,0xffffb
 108:	a0010113          	add	sp,sp,-1536 # ffffaa00 <_end+0xffff7a00>
 10c:	00000797          	auipc	a5,0x0
 110:	01478793          	add	a5,a5,20 # 120 <test_3+0x28>
 114:	00209123          	sh	sp,2(ra)
 118:	00209703          	lh	a4,2(ra)
 11c:	0080006f          	j	124 <test_3+0x2c>
 120:	00010713          	mv	a4,sp
 124:	ffffb3b7          	lui	t2,0xffffb
 128:	a0038393          	add	t2,t2,-1536 # ffffaa00 <_end+0xffff7a00>
 12c:	48771a63          	bne	a4,t2,5c0 <fail>

00000130 <test_4>:
 130:	00400193          	li	gp,4
 134:	00002097          	auipc	ra,0x2
 138:	ecc08093          	add	ra,ra,-308 # 2000 <begin_signature>
 13c:	beef1137          	lui	sp,0xbeef1
 140:	aa010113          	add	sp,sp,-1376 # beef0aa0 <_end+0xbeeedaa0>
 144:	00000797          	auipc	a5,0x0
 148:	01478793          	add	a5,a5,20 # 158 <test_4+0x28>
 14c:	00209223          	sh	sp,4(ra)
 150:	0040a703          	lw	a4,4(ra)
 154:	0080006f          	j	15c <test_4+0x2c>
 158:	00010713          	mv	a4,sp
 15c:	beef13b7          	lui	t2,0xbeef1
 160:	aa038393          	add	t2,t2,-1376 # beef0aa0 <_end+0xbeeedaa0>
 164:	44771e63          	bne	a4,t2,5c0 <fail>

00000168 <test_5>:
 168:	00500193          	li	gp,5
 16c:	00002097          	auipc	ra,0x2
 170:	e9408093          	add	ra,ra,-364 # 2000 <begin_signature>
 174:	ffffa137          	lui	sp,0xffffa
 178:	00a10113          	add	sp,sp,10 # ffffa00a <_end+0xffff700a>
 17c:	00000797          	auipc	a5,0x0
 180:	01478793          	add	a5,a5,20 # 190 <test_5+0x28>
 184:	00209323          	sh	sp,6(ra)
 188:	00609703          	lh	a4,6(ra)
 18c:	0080006f          	j	194 <test_5+0x2c>
 190:	00010713          	mv	a4,sp
 194:	ffffa3b7          	lui	t2,0xffffa
 198:	00a38393          	add	t2,t2,10 # ffffa00a <_end+0xffff700a>
 19c:	42771263          	bne	a4,t2,5c0 <fail>

000001a0 <test_6>:
 1a0:	00600193          	li	gp,6
 1a4:	00002097          	auipc	ra,0x2
 1a8:	e6a08093          	add	ra,ra,-406 # 200e <tdat8>
 1ac:	0aa00113          	li	sp,170
 1b0:	00000797          	auipc	a5,0x0
 1b4:	01478793          	add	a5,a5,20 # 1c4 <test_6+0x24>
 1b8:	fe209d23          	sh	sp,-6(ra)
 1bc:	ffa09703          	lh	a4,-6(ra)
 1c0:	0080006f          	j	1c8 <test_6+0x28>
 1c4:	00010713          	mv	a4,sp
 1c8:	0aa00393          	li	t2,170
 1cc:	3e771a63          	bne	a4,t2,5c0 <fail>

000001d0 <test_7>:
 1d0:	00700193          	li	gp,7
 1d4:	00002097          	auipc	ra,0x2
 1d8:	e3a08093          	add	ra,ra,-454 # 200e <tdat8>
 1dc:	ffffb137          	lui	sp,0xffffb
 1e0:	a0010113          	add	sp,sp,-1536 # ffffaa00 <_end+0xffff7a00>
 1e4:	00000797          	auipc	a5,0x0
 1e8:	01478793          	add	a5,a5,20 # 1f8 <test_7+0x28>
 1ec:	fe209e23          	sh	sp,-4(ra)
 1f0:	ffc09703          	lh	a4,-4(ra)
 1f4:	0080006f          	j	1fc <test_7+0x2c>
 1f8:	00010713          	mv	a4,sp
 1fc:	ffffb3b7          	lui	t2,0xffffb
 200:	a0038393          	add	t2,t2,-1536 # ffffaa00 <_end+0xffff7a00>
 204:	3a771e63          	bne	a4,t2,5c0 <fail>

00000208 <test_8>:
 208:	00800193          	li	gp,8
 20c:	00002097          	auipc	ra,0x2
 210:	e0208093          	add	ra,ra,-510 # 200e <tdat8>
 214:	00001137          	lui	sp,0x1
 218:	aa010113          	add	sp,sp,-1376 # aa0 <pass+0x4c0>
 21c:	00000797          	auipc	a5,0x0
 220:	01478793          	add	a5,a5,20 # 230 <test_8+0x28>
 224:	fe209f23          	sh	sp,-2(ra)
 228:	ffe09703          	lh	a4,-2(ra)
 22c:	0080006f          	j	234 <test_8+0x2c>
 230:	00010713          	mv	a4,sp
 234:	000013b7          	lui	t2,0x1
 238:	aa038393          	add	t2,t2,-1376 # aa0 <pass+0x4c0>
 23c:	38771263          	bne	a4,t2,5c0 <fail>

00000240 <test_9>:
 240:	00900193          	li	gp,9
 244:	00002097          	auipc	ra,0x2
 248:	dca08093          	add	ra,ra,-566 # 200e <tdat8>
 24c:	ffffa137          	lui	sp,0xffffa
 250:	00a10113          	add	sp,sp,10 # ffffa00a <_end+0xffff700a>
 254:	00000797          	auipc	a5,0x0
 258:	01478793          	add	a5,a5,20 # 268 <test_9+0x28>
 25c:	00209023          	sh	sp,0(ra)
 260:	00009703          	lh	a4,0(ra)
 264:	0080006f          	j	26c <test_9+0x2c>
 268:	00010713          	mv	a4,sp
 26c:	ffffa3b7          	lui	t2,0xffffa
 270:	00a38393          	add	t2,t2,10 # ffffa00a <_end+0xffff700a>
 274:	34771663          	bne	a4,t2,5c0 <fail>

00000278 <test_10>:
 278:	00a00193          	li	gp,10
 27c:	00002097          	auipc	ra,0x2
 280:	d9408093          	add	ra,ra,-620 # 2010 <tdat9>
 284:	12345137          	lui	sp,0x12345
 288:	67810113          	add	sp,sp,1656 # 12345678 <_end+0x12342678>
 28c:	fe008213          	add	tp,ra,-32
 290:	02221023          	sh	sp,32(tp) # 20 <reset_vector+0x1c>
 294:	00009283          	lh	t0,0(ra)
 298:	000053b7          	lui	t2,0x5
 29c:	67838393          	add	t2,t2,1656 # 5678 <_end+0x2678>
 2a0:	32729063          	bne	t0,t2,5c0 <fail>

000002a4 <test_11>:
 2a4:	00b00193          	li	gp,11
 2a8:	00002097          	auipc	ra,0x2
 2ac:	d6808093          	add	ra,ra,-664 # 2010 <tdat9>
 2b0:	00003137          	lui	sp,0x3
 2b4:	09810113          	add	sp,sp,152 # 3098 <_end+0x98>
 2b8:	ffb08093          	add	ra,ra,-5
 2bc:	002093a3          	sh	sp,7(ra)
 2c0:	00002217          	auipc	tp,0x2
 2c4:	d5220213          	add	tp,tp,-686 # 2012 <tdat10>
 2c8:	00021283          	lh	t0,0(tp) # 0 <_start>
 2cc:	000033b7          	lui	t2,0x3
 2d0:	09838393          	add	t2,t2,152 # 3098 <_end+0x98>
 2d4:	2e729663          	bne	t0,t2,5c0 <fail>

000002d8 <test_12>:
 2d8:	00c00193          	li	gp,12
 2dc:	00000213          	li	tp,0
 2e0:	ffffd0b7          	lui	ra,0xffffd
 2e4:	cdd08093          	add	ra,ra,-803 # ffffccdd <_end+0xffff9cdd>
 2e8:	00002117          	auipc	sp,0x2
 2ec:	d1810113          	add	sp,sp,-744 # 2000 <begin_signature>
 2f0:	00111023          	sh	ra,0(sp)
 2f4:	00011703          	lh	a4,0(sp)
 2f8:	ffffd3b7          	lui	t2,0xffffd
 2fc:	cdd38393          	add	t2,t2,-803 # ffffccdd <_end+0xffff9cdd>
 300:	2c771063          	bne	a4,t2,5c0 <fail>
 304:	00120213          	add	tp,tp,1 # 1 <_start+0x1>
 308:	00200293          	li	t0,2
 30c:	fc521ae3          	bne	tp,t0,2e0 <test_12+0x8>

00000310 <test_13>:
 310:	00d00193          	li	gp,13
 314:	00000213          	li	tp,0
 318:	ffffc0b7          	lui	ra,0xffffc
 31c:	ccd08093          	add	ra,ra,-819 # ffffbccd <_end+0xffff8ccd>
 320:	00002117          	auipc	sp,0x2
 324:	ce010113          	add	sp,sp,-800 # 2000 <begin_signature>
 328:	00000013          	nop
 32c:	00111123          	sh	ra,2(sp)
 330:	00211703          	lh	a4,2(sp)
 334:	ffffc3b7          	lui	t2,0xffffc
 338:	ccd38393          	add	t2,t2,-819 # ffffbccd <_end+0xffff8ccd>
 33c:	28771263          	bne	a4,t2,5c0 <fail>
 340:	00120213          	add	tp,tp,1 # 1 <_start+0x1>
 344:	00200293          	li	t0,2
 348:	fc5218e3          	bne	tp,t0,318 <test_13+0x8>

0000034c <test_14>:
 34c:	00e00193          	li	gp,14
 350:	00000213          	li	tp,0
 354:	ffffc0b7          	lui	ra,0xffffc
 358:	bcc08093          	add	ra,ra,-1076 # ffffbbcc <_end+0xffff8bcc>
 35c:	00002117          	auipc	sp,0x2
 360:	ca410113          	add	sp,sp,-860 # 2000 <begin_signature>
 364:	00000013          	nop
 368:	00000013          	nop
 36c:	00111223          	sh	ra,4(sp)
 370:	00411703          	lh	a4,4(sp)
 374:	ffffc3b7          	lui	t2,0xffffc
 378:	bcc38393          	add	t2,t2,-1076 # ffffbbcc <_end+0xffff8bcc>
 37c:	24771263          	bne	a4,t2,5c0 <fail>
 380:	00120213          	add	tp,tp,1 # 1 <_start+0x1>
 384:	00200293          	li	t0,2
 388:	fc5216e3          	bne	tp,t0,354 <test_14+0x8>

0000038c <test_15>:
 38c:	00f00193          	li	gp,15
 390:	00000213          	li	tp,0
 394:	ffffb0b7          	lui	ra,0xffffb
 398:	bbc08093          	add	ra,ra,-1092 # ffffabbc <_end+0xffff7bbc>
 39c:	00000013          	nop
 3a0:	00002117          	auipc	sp,0x2
 3a4:	c6010113          	add	sp,sp,-928 # 2000 <begin_signature>
 3a8:	00111323          	sh	ra,6(sp)
 3ac:	00611703          	lh	a4,6(sp)
 3b0:	ffffb3b7          	lui	t2,0xffffb
 3b4:	bbc38393          	add	t2,t2,-1092 # ffffabbc <_end+0xffff7bbc>
 3b8:	20771463          	bne	a4,t2,5c0 <fail>
 3bc:	00120213          	add	tp,tp,1 # 1 <_start+0x1>
 3c0:	00200293          	li	t0,2
 3c4:	fc5218e3          	bne	tp,t0,394 <test_15+0x8>

000003c8 <test_16>:
 3c8:	01000193          	li	gp,16
 3cc:	00000213          	li	tp,0
 3d0:	ffffb0b7          	lui	ra,0xffffb
 3d4:	abb08093          	add	ra,ra,-1349 # ffffaabb <_end+0xffff7abb>
 3d8:	00000013          	nop
 3dc:	00002117          	auipc	sp,0x2
 3e0:	c2410113          	add	sp,sp,-988 # 2000 <begin_signature>
 3e4:	00000013          	nop
 3e8:	00111423          	sh	ra,8(sp)
 3ec:	00811703          	lh	a4,8(sp)
 3f0:	ffffb3b7          	lui	t2,0xffffb
 3f4:	abb38393          	add	t2,t2,-1349 # ffffaabb <_end+0xffff7abb>
 3f8:	1c771463          	bne	a4,t2,5c0 <fail>
 3fc:	00120213          	add	tp,tp,1 # 1 <_start+0x1>
 400:	00200293          	li	t0,2
 404:	fc5216e3          	bne	tp,t0,3d0 <test_16+0x8>

00000408 <test_17>:
 408:	01100193          	li	gp,17
 40c:	00000213          	li	tp,0
 410:	ffffe0b7          	lui	ra,0xffffe
 414:	aab08093          	add	ra,ra,-1365 # ffffdaab <_end+0xffffaaab>
 418:	00000013          	nop
 41c:	00000013          	nop
 420:	00002117          	auipc	sp,0x2
 424:	be010113          	add	sp,sp,-1056 # 2000 <begin_signature>
 428:	00111523          	sh	ra,10(sp)
 42c:	00a11703          	lh	a4,10(sp)
 430:	ffffe3b7          	lui	t2,0xffffe
 434:	aab38393          	add	t2,t2,-1365 # ffffdaab <_end+0xffffaaab>
 438:	18771463          	bne	a4,t2,5c0 <fail>
 43c:	00120213          	add	tp,tp,1 # 1 <_start+0x1>
 440:	00200293          	li	t0,2
 444:	fc5216e3          	bne	tp,t0,410 <test_17+0x8>

00000448 <test_18>:
 448:	01200193          	li	gp,18
 44c:	00000213          	li	tp,0
 450:	00002117          	auipc	sp,0x2
 454:	bb010113          	add	sp,sp,-1104 # 2000 <begin_signature>
 458:	000020b7          	lui	ra,0x2
 45c:	23308093          	add	ra,ra,563 # 2233 <end_signature+0x213>
 460:	00111023          	sh	ra,0(sp)
 464:	00011703          	lh	a4,0(sp)
 468:	000023b7          	lui	t2,0x2
 46c:	23338393          	add	t2,t2,563 # 2233 <end_signature+0x213>
 470:	14771863          	bne	a4,t2,5c0 <fail>
 474:	00120213          	add	tp,tp,1 # 1 <_start+0x1>
 478:	00200293          	li	t0,2
 47c:	fc521ae3          	bne	tp,t0,450 <test_18+0x8>

00000480 <test_19>:
 480:	01300193          	li	gp,19
 484:	00000213          	li	tp,0
 488:	00002117          	auipc	sp,0x2
 48c:	b7810113          	add	sp,sp,-1160 # 2000 <begin_signature>
 490:	000010b7          	lui	ra,0x1
 494:	22308093          	add	ra,ra,547 # 1223 <fromhost+0x1e3>
 498:	00000013          	nop
 49c:	00111123          	sh	ra,2(sp)
 4a0:	00211703          	lh	a4,2(sp)
 4a4:	000013b7          	lui	t2,0x1
 4a8:	22338393          	add	t2,t2,547 # 1223 <fromhost+0x1e3>
 4ac:	10771a63          	bne	a4,t2,5c0 <fail>
 4b0:	00120213          	add	tp,tp,1 # 1 <_start+0x1>
 4b4:	00200293          	li	t0,2
 4b8:	fc5218e3          	bne	tp,t0,488 <test_19+0x8>

000004bc <test_20>:
 4bc:	01400193          	li	gp,20
 4c0:	00000213          	li	tp,0
 4c4:	00002117          	auipc	sp,0x2
 4c8:	b3c10113          	add	sp,sp,-1220 # 2000 <begin_signature>
 4cc:	000010b7          	lui	ra,0x1
 4d0:	12208093          	add	ra,ra,290 # 1122 <fromhost+0xe2>
 4d4:	00000013          	nop
 4d8:	00000013          	nop
 4dc:	00111223          	sh	ra,4(sp)
 4e0:	00411703          	lh	a4,4(sp)
 4e4:	000013b7          	lui	t2,0x1
 4e8:	12238393          	add	t2,t2,290 # 1122 <fromhost+0xe2>
 4ec:	0c771a63          	bne	a4,t2,5c0 <fail>
 4f0:	00120213          	add	tp,tp,1 # 1 <_start+0x1>
 4f4:	00200293          	li	t0,2
 4f8:	fc5216e3          	bne	tp,t0,4c4 <test_20+0x8>

000004fc <test_21>:
 4fc:	01500193          	li	gp,21
 500:	00000213          	li	tp,0
 504:	00002117          	auipc	sp,0x2
 508:	afc10113          	add	sp,sp,-1284 # 2000 <begin_signature>
 50c:	00000013          	nop
 510:	11200093          	li	ra,274
 514:	00111323          	sh	ra,6(sp)
 518:	00611703          	lh	a4,6(sp)
 51c:	11200393          	li	t2,274
 520:	0a771063          	bne	a4,t2,5c0 <fail>
 524:	00120213          	add	tp,tp,1 # 1 <_start+0x1>
 528:	00200293          	li	t0,2
 52c:	fc521ce3          	bne	tp,t0,504 <test_21+0x8>

00000530 <test_22>:
 530:	01600193          	li	gp,22
 534:	00000213          	li	tp,0
 538:	00002117          	auipc	sp,0x2
 53c:	ac810113          	add	sp,sp,-1336 # 2000 <begin_signature>
 540:	00000013          	nop
 544:	01100093          	li	ra,17
 548:	00000013          	nop
 54c:	00111423          	sh	ra,8(sp)
 550:	00811703          	lh	a4,8(sp)
 554:	01100393          	li	t2,17
 558:	06771463          	bne	a4,t2,5c0 <fail>
 55c:	00120213          	add	tp,tp,1 # 1 <_start+0x1>
 560:	00200293          	li	t0,2
 564:	fc521ae3          	bne	tp,t0,538 <test_22+0x8>

00000568 <test_23>:
 568:	01700193          	li	gp,23
 56c:	00000213          	li	tp,0
 570:	00002117          	auipc	sp,0x2
 574:	a9010113          	add	sp,sp,-1392 # 2000 <begin_signature>
 578:	00000013          	nop
 57c:	00000013          	nop
 580:	000030b7          	lui	ra,0x3
 584:	00108093          	add	ra,ra,1 # 3001 <_end+0x1>
 588:	00111523          	sh	ra,10(sp)
 58c:	00a11703          	lh	a4,10(sp)
 590:	000033b7          	lui	t2,0x3
 594:	00138393          	add	t2,t2,1 # 3001 <_end+0x1>
 598:	02771463          	bne	a4,t2,5c0 <fail>
 59c:	00120213          	add	tp,tp,1 # 1 <_start+0x1>
 5a0:	00200293          	li	t0,2
 5a4:	fc5216e3          	bne	tp,t0,570 <test_23+0x8>
 5a8:	0000c537          	lui	a0,0xc
 5ac:	eef50513          	add	a0,a0,-273 # beef <_end+0x8eef>
 5b0:	00002597          	auipc	a1,0x2
 5b4:	a5058593          	add	a1,a1,-1456 # 2000 <begin_signature>
 5b8:	00a59323          	sh	a0,6(a1)
 5bc:	02301263          	bne	zero,gp,5e0 <pass>

000005c0 <fail>:
 5c0:	0ff0000f          	fence
 5c4:	04e00513          	li	a0,78
 5c8:	fea00fa3          	sb	a0,-1(zero) # ffffffff <_end+0xffffcfff>
 5cc:	06f00513          	li	a0,111
 5d0:	fea00fa3          	sb	a0,-1(zero) # ffffffff <_end+0xffffcfff>
 5d4:	00a00513          	li	a0,10
 5d8:	fea00fa3          	sb	a0,-1(zero) # ffffffff <_end+0xffffcfff>
 5dc:	c0001073          	unimp

000005e0 <pass>:
 5e0:	0ff0000f          	fence
 5e4:	04f00513          	li	a0,79
 5e8:	fea00fa3          	sb	a0,-1(zero) # ffffffff <_end+0xffffcfff>
 5ec:	06b00513          	li	a0,107
 5f0:	fea00fa3          	sb	a0,-1(zero) # ffffffff <_end+0xffffcfff>
 5f4:	00a00513          	li	a0,10
 5f8:	fea00fa3          	sb	a0,-1(zero) # ffffffff <_end+0xffffcfff>
 5fc:	00100193          	li	gp,1
 600:	c0001073          	unimp
 604:	c0001073          	unimp
	...
