
slli.elf:     file format elf32-littleriscv


Disassembly of section .text.init:

00000000 <_start>:
   0:	0040006f          	j	4 <reset_vector>

00000004 <reset_vector>:
   4:	00000093          	li	ra,0
   8:	00000113          	li	sp,0
   c:	00000193          	li	gp,0
  10:	00000213          	li	tp,0
  14:	00000293          	li	t0,0
  18:	00000313          	li	t1,0
  1c:	00000393          	li	t2,0
  20:	00000413          	li	s0,0
  24:	00000493          	li	s1,0
  28:	00000513          	li	a0,0
  2c:	00000593          	li	a1,0
  30:	00000613          	li	a2,0
  34:	00000693          	li	a3,0
  38:	00000713          	li	a4,0
  3c:	00000793          	li	a5,0
  40:	00000813          	li	a6,0
  44:	00000893          	li	a7,0
  48:	00000913          	li	s2,0
  4c:	00000993          	li	s3,0
  50:	00000a13          	li	s4,0
  54:	00000a93          	li	s5,0
  58:	00000b13          	li	s6,0
  5c:	00000b93          	li	s7,0
  60:	00000c13          	li	s8,0
  64:	00000c93          	li	s9,0
  68:	00000d13          	li	s10,0
  6c:	00000d93          	li	s11,0
  70:	00000e13          	li	t3,0
  74:	00000e93          	li	t4,0
  78:	00000f13          	li	t5,0
  7c:	00000f93          	li	t6,0
  80:	00000193          	li	gp,0
  84:	00100513          	li	a0,1
  88:	01f51513          	sll	a0,a0,0x1f
  8c:	02054263          	bltz	a0,b0 <reset_vector+0xac>
  90:	0ff0000f          	fence
  94:	04f00513          	li	a0,79
  98:	fea00fa3          	sb	a0,-1(zero) # ffffffff <_end+0xffffdfff>
  9c:	06b00513          	li	a0,107
  a0:	fea00fa3          	sb	a0,-1(zero) # ffffffff <_end+0xffffdfff>
  a4:	00a00513          	li	a0,10
  a8:	fea00fa3          	sb	a0,-1(zero) # ffffffff <_end+0xffffdfff>
  ac:	00100193          	li	gp,1
  b0:	30005073          	csrw	mstatus,0
  b4:	00000297          	auipc	t0,0x0
  b8:	01428293          	add	t0,t0,20 # c8 <test_2>
  bc:	34129073          	csrw	mepc,t0
  c0:	f1402573          	csrr	a0,mhartid
  c4:	30200073          	mret

000000c8 <test_2>:
  c8:	00200193          	li	gp,2
  cc:	00100093          	li	ra,1
  d0:	00009713          	sll	a4,ra,0x0
  d4:	00100393          	li	t2,1
  d8:	26771a63          	bne	a4,t2,34c <fail>

000000dc <test_3>:
  dc:	00300193          	li	gp,3
  e0:	00100093          	li	ra,1
  e4:	00109713          	sll	a4,ra,0x1
  e8:	00200393          	li	t2,2
  ec:	26771063          	bne	a4,t2,34c <fail>

000000f0 <test_4>:
  f0:	00400193          	li	gp,4
  f4:	00100093          	li	ra,1
  f8:	00709713          	sll	a4,ra,0x7
  fc:	08000393          	li	t2,128
 100:	24771663          	bne	a4,t2,34c <fail>

00000104 <test_5>:
 104:	00500193          	li	gp,5
 108:	00100093          	li	ra,1
 10c:	00e09713          	sll	a4,ra,0xe
 110:	000043b7          	lui	t2,0x4
 114:	22771c63          	bne	a4,t2,34c <fail>

00000118 <test_6>:
 118:	00600193          	li	gp,6
 11c:	00100093          	li	ra,1
 120:	01f09713          	sll	a4,ra,0x1f
 124:	800003b7          	lui	t2,0x80000
 128:	22771263          	bne	a4,t2,34c <fail>

0000012c <test_7>:
 12c:	00700193          	li	gp,7
 130:	fff00093          	li	ra,-1
 134:	00009713          	sll	a4,ra,0x0
 138:	fff00393          	li	t2,-1
 13c:	20771863          	bne	a4,t2,34c <fail>

00000140 <test_8>:
 140:	00800193          	li	gp,8
 144:	fff00093          	li	ra,-1
 148:	00109713          	sll	a4,ra,0x1
 14c:	ffe00393          	li	t2,-2
 150:	1e771e63          	bne	a4,t2,34c <fail>

00000154 <test_9>:
 154:	00900193          	li	gp,9
 158:	fff00093          	li	ra,-1
 15c:	00709713          	sll	a4,ra,0x7
 160:	f8000393          	li	t2,-128
 164:	1e771463          	bne	a4,t2,34c <fail>

00000168 <test_10>:
 168:	00a00193          	li	gp,10
 16c:	fff00093          	li	ra,-1
 170:	00e09713          	sll	a4,ra,0xe
 174:	ffffc3b7          	lui	t2,0xffffc
 178:	1c771a63          	bne	a4,t2,34c <fail>

0000017c <test_11>:
 17c:	00b00193          	li	gp,11
 180:	fff00093          	li	ra,-1
 184:	01f09713          	sll	a4,ra,0x1f
 188:	800003b7          	lui	t2,0x80000
 18c:	1c771063          	bne	a4,t2,34c <fail>

00000190 <test_12>:
 190:	00c00193          	li	gp,12
 194:	212120b7          	lui	ra,0x21212
 198:	12108093          	add	ra,ra,289 # 21212121 <_end+0x21210121>
 19c:	00009713          	sll	a4,ra,0x0
 1a0:	212123b7          	lui	t2,0x21212
 1a4:	12138393          	add	t2,t2,289 # 21212121 <_end+0x21210121>
 1a8:	1a771263          	bne	a4,t2,34c <fail>

000001ac <test_13>:
 1ac:	00d00193          	li	gp,13
 1b0:	212120b7          	lui	ra,0x21212
 1b4:	12108093          	add	ra,ra,289 # 21212121 <_end+0x21210121>
 1b8:	00109713          	sll	a4,ra,0x1
 1bc:	424243b7          	lui	t2,0x42424
 1c0:	24238393          	add	t2,t2,578 # 42424242 <_end+0x42422242>
 1c4:	18771463          	bne	a4,t2,34c <fail>

000001c8 <test_14>:
 1c8:	00e00193          	li	gp,14
 1cc:	212120b7          	lui	ra,0x21212
 1d0:	12108093          	add	ra,ra,289 # 21212121 <_end+0x21210121>
 1d4:	00709713          	sll	a4,ra,0x7
 1d8:	909093b7          	lui	t2,0x90909
 1dc:	08038393          	add	t2,t2,128 # 90909080 <_end+0x90907080>
 1e0:	16771663          	bne	a4,t2,34c <fail>

000001e4 <test_15>:
 1e4:	00f00193          	li	gp,15
 1e8:	212120b7          	lui	ra,0x21212
 1ec:	12108093          	add	ra,ra,289 # 21212121 <_end+0x21210121>
 1f0:	00e09713          	sll	a4,ra,0xe
 1f4:	484843b7          	lui	t2,0x48484
 1f8:	14771a63          	bne	a4,t2,34c <fail>

000001fc <test_16>:
 1fc:	01000193          	li	gp,16
 200:	212120b7          	lui	ra,0x21212
 204:	12108093          	add	ra,ra,289 # 21212121 <_end+0x21210121>
 208:	01f09713          	sll	a4,ra,0x1f
 20c:	800003b7          	lui	t2,0x80000
 210:	12771e63          	bne	a4,t2,34c <fail>

00000214 <test_17>:
 214:	01100193          	li	gp,17
 218:	00100093          	li	ra,1
 21c:	00709093          	sll	ra,ra,0x7
 220:	08000393          	li	t2,128
 224:	12709463          	bne	ra,t2,34c <fail>

00000228 <test_18>:
 228:	01200193          	li	gp,18
 22c:	00000213          	li	tp,0
 230:	00100093          	li	ra,1
 234:	00709713          	sll	a4,ra,0x7
 238:	00070313          	mv	t1,a4
 23c:	00120213          	add	tp,tp,1 # 1 <_start+0x1>
 240:	00200293          	li	t0,2
 244:	fe5216e3          	bne	tp,t0,230 <test_18+0x8>
 248:	08000393          	li	t2,128
 24c:	10731063          	bne	t1,t2,34c <fail>

00000250 <test_19>:
 250:	01300193          	li	gp,19
 254:	00000213          	li	tp,0
 258:	00100093          	li	ra,1
 25c:	00e09713          	sll	a4,ra,0xe
 260:	00000013          	nop
 264:	00070313          	mv	t1,a4
 268:	00120213          	add	tp,tp,1 # 1 <_start+0x1>
 26c:	00200293          	li	t0,2
 270:	fe5214e3          	bne	tp,t0,258 <test_19+0x8>
 274:	000043b7          	lui	t2,0x4
 278:	0c731a63          	bne	t1,t2,34c <fail>

0000027c <test_20>:
 27c:	01400193          	li	gp,20
 280:	00000213          	li	tp,0
 284:	00100093          	li	ra,1
 288:	01f09713          	sll	a4,ra,0x1f
 28c:	00000013          	nop
 290:	00000013          	nop
 294:	00070313          	mv	t1,a4
 298:	00120213          	add	tp,tp,1 # 1 <_start+0x1>
 29c:	00200293          	li	t0,2
 2a0:	fe5212e3          	bne	tp,t0,284 <test_20+0x8>
 2a4:	800003b7          	lui	t2,0x80000
 2a8:	0a731263          	bne	t1,t2,34c <fail>

000002ac <test_21>:
 2ac:	01500193          	li	gp,21
 2b0:	00000213          	li	tp,0
 2b4:	00100093          	li	ra,1
 2b8:	00709713          	sll	a4,ra,0x7
 2bc:	00120213          	add	tp,tp,1 # 1 <_start+0x1>
 2c0:	00200293          	li	t0,2
 2c4:	fe5218e3          	bne	tp,t0,2b4 <test_21+0x8>
 2c8:	08000393          	li	t2,128
 2cc:	08771063          	bne	a4,t2,34c <fail>

000002d0 <test_22>:
 2d0:	01600193          	li	gp,22
 2d4:	00000213          	li	tp,0
 2d8:	00100093          	li	ra,1
 2dc:	00000013          	nop
 2e0:	00e09713          	sll	a4,ra,0xe
 2e4:	00120213          	add	tp,tp,1 # 1 <_start+0x1>
 2e8:	00200293          	li	t0,2
 2ec:	fe5216e3          	bne	tp,t0,2d8 <test_22+0x8>
 2f0:	000043b7          	lui	t2,0x4
 2f4:	04771c63          	bne	a4,t2,34c <fail>

000002f8 <test_23>:
 2f8:	01700193          	li	gp,23
 2fc:	00000213          	li	tp,0
 300:	00100093          	li	ra,1
 304:	00000013          	nop
 308:	00000013          	nop
 30c:	01f09713          	sll	a4,ra,0x1f
 310:	00120213          	add	tp,tp,1 # 1 <_start+0x1>
 314:	00200293          	li	t0,2
 318:	fe5214e3          	bne	tp,t0,300 <test_23+0x8>
 31c:	800003b7          	lui	t2,0x80000
 320:	02771663          	bne	a4,t2,34c <fail>

00000324 <test_24>:
 324:	01800193          	li	gp,24
 328:	01f01093          	sll	ra,zero,0x1f
 32c:	00000393          	li	t2,0
 330:	00709e63          	bne	ra,t2,34c <fail>

00000334 <test_25>:
 334:	01900193          	li	gp,25
 338:	02100093          	li	ra,33
 33c:	01409013          	sll	zero,ra,0x14
 340:	00000393          	li	t2,0
 344:	00701463          	bne	zero,t2,34c <fail>
 348:	02301263          	bne	zero,gp,36c <pass>

0000034c <fail>:
 34c:	0ff0000f          	fence
 350:	04e00513          	li	a0,78
 354:	fea00fa3          	sb	a0,-1(zero) # ffffffff <_end+0xffffdfff>
 358:	06f00513          	li	a0,111
 35c:	fea00fa3          	sb	a0,-1(zero) # ffffffff <_end+0xffffdfff>
 360:	00a00513          	li	a0,10
 364:	fea00fa3          	sb	a0,-1(zero) # ffffffff <_end+0xffffdfff>
 368:	c0001073          	unimp

0000036c <pass>:
 36c:	0ff0000f          	fence
 370:	04f00513          	li	a0,79
 374:	fea00fa3          	sb	a0,-1(zero) # ffffffff <_end+0xffffdfff>
 378:	06b00513          	li	a0,107
 37c:	fea00fa3          	sb	a0,-1(zero) # ffffffff <_end+0xffffdfff>
 380:	00a00513          	li	a0,10
 384:	fea00fa3          	sb	a0,-1(zero) # ffffffff <_end+0xffffdfff>
 388:	00100193          	li	gp,1
 38c:	c0001073          	unimp
 390:	c0001073          	unimp
	...
