
slt.elf:     file format elf32-littleriscv


Disassembly of section .text.init:

00000000 <_start>:
   0:	0500006f          	j	50 <reset_vector>

00000004 <trap_vector>:
   4:	34202f73          	csrr	t5,mcause
   8:	00800f93          	li	t6,8
   c:	03ff0863          	beq	t5,t6,3c <write_tohost>
  10:	00900f93          	li	t6,9
  14:	03ff0463          	beq	t5,t6,3c <write_tohost>
  18:	00b00f93          	li	t6,11
  1c:	03ff0063          	beq	t5,t6,3c <write_tohost>
  20:	00000f13          	li	t5,0
  24:	000f0463          	beqz	t5,2c <trap_vector+0x28>
  28:	000f0067          	jr	t5
  2c:	34202f73          	csrr	t5,mcause
  30:	000f5463          	bgez	t5,38 <handle_exception>
  34:	0040006f          	j	38 <handle_exception>

00000038 <handle_exception>:
  38:	5391e193          	or	gp,gp,1337

0000003c <write_tohost>:
  3c:	00001f17          	auipc	t5,0x1
  40:	fc3f2223          	sw	gp,-60(t5) # 1000 <tohost>
  44:	00001f17          	auipc	t5,0x1
  48:	fc0f2023          	sw	zero,-64(t5) # 1004 <tohost+0x4>
  4c:	ff1ff06f          	j	3c <write_tohost>

00000050 <reset_vector>:
  50:	00000093          	li	ra,0
  54:	00000113          	li	sp,0
  58:	00000193          	li	gp,0
  5c:	00000213          	li	tp,0
  60:	00000293          	li	t0,0
  64:	00000313          	li	t1,0
  68:	00000393          	li	t2,0
  6c:	00000413          	li	s0,0
  70:	00000493          	li	s1,0
  74:	00000513          	li	a0,0
  78:	00000593          	li	a1,0
  7c:	00000613          	li	a2,0
  80:	00000693          	li	a3,0
  84:	00000713          	li	a4,0
  88:	00000793          	li	a5,0
  8c:	00000813          	li	a6,0
  90:	00000893          	li	a7,0
  94:	00000913          	li	s2,0
  98:	00000993          	li	s3,0
  9c:	00000a13          	li	s4,0
  a0:	00000a93          	li	s5,0
  a4:	00000b13          	li	s6,0
  a8:	00000b93          	li	s7,0
  ac:	00000c13          	li	s8,0
  b0:	00000c93          	li	s9,0
  b4:	00000d13          	li	s10,0
  b8:	00000d93          	li	s11,0
  bc:	00000e13          	li	t3,0
  c0:	00000e93          	li	t4,0
  c4:	00000f13          	li	t5,0
  c8:	00000f93          	li	t6,0
  cc:	f1402573          	csrr	a0,mhartid
  d0:	00051063          	bnez	a0,d0 <reset_vector+0x80>
  d4:	00000297          	auipc	t0,0x0
  d8:	01028293          	add	t0,t0,16 # e4 <reset_vector+0x94>
  dc:	30529073          	csrw	mtvec,t0
  e0:	74445073          	csrw	0x744,8
  e4:	00000297          	auipc	t0,0x0
  e8:	01028293          	add	t0,t0,16 # f4 <reset_vector+0xa4>
  ec:	30529073          	csrw	mtvec,t0
  f0:	18005073          	csrw	satp,0
  f4:	00000297          	auipc	t0,0x0
  f8:	02028293          	add	t0,t0,32 # 114 <reset_vector+0xc4>
  fc:	30529073          	csrw	mtvec,t0
 100:	800002b7          	lui	t0,0x80000
 104:	fff28293          	add	t0,t0,-1 # 7fffffff <_end+0x7fffdfff>
 108:	3b029073          	csrw	pmpaddr0,t0
 10c:	01f00293          	li	t0,31
 110:	3a029073          	csrw	pmpcfg0,t0
 114:	30405073          	csrw	mie,0
 118:	00000297          	auipc	t0,0x0
 11c:	01428293          	add	t0,t0,20 # 12c <reset_vector+0xdc>
 120:	30529073          	csrw	mtvec,t0
 124:	30205073          	csrw	medeleg,0
 128:	30305073          	csrw	mideleg,0
 12c:	00000193          	li	gp,0
 130:	00000297          	auipc	t0,0x0
 134:	ed428293          	add	t0,t0,-300 # 4 <trap_vector>
 138:	30529073          	csrw	mtvec,t0
 13c:	00100513          	li	a0,1
 140:	01f51513          	sll	a0,a0,0x1f
 144:	00054c63          	bltz	a0,15c <reset_vector+0x10c>
 148:	0ff0000f          	fence
 14c:	00100193          	li	gp,1
 150:	05d00893          	li	a7,93
 154:	00000513          	li	a0,0
 158:	00000073          	ecall
 15c:	00000293          	li	t0,0
 160:	00028a63          	beqz	t0,174 <reset_vector+0x124>
 164:	10529073          	csrw	stvec,t0
 168:	0000b2b7          	lui	t0,0xb
 16c:	10928293          	add	t0,t0,265 # b109 <_end+0x9109>
 170:	30229073          	csrw	medeleg,t0
 174:	30005073          	csrw	mstatus,0
 178:	00000297          	auipc	t0,0x0
 17c:	01428293          	add	t0,t0,20 # 18c <test_2>
 180:	34129073          	csrw	mepc,t0
 184:	f1402573          	csrr	a0,mhartid
 188:	30200073          	mret

0000018c <test_2>:
 18c:	00200193          	li	gp,2
 190:	00000093          	li	ra,0
 194:	00000113          	li	sp,0
 198:	0020a733          	slt	a4,ra,sp
 19c:	00000393          	li	t2,0
 1a0:	4a771a63          	bne	a4,t2,654 <fail>

000001a4 <test_3>:
 1a4:	00300193          	li	gp,3
 1a8:	00100093          	li	ra,1
 1ac:	00100113          	li	sp,1
 1b0:	0020a733          	slt	a4,ra,sp
 1b4:	00000393          	li	t2,0
 1b8:	48771e63          	bne	a4,t2,654 <fail>

000001bc <test_4>:
 1bc:	00400193          	li	gp,4
 1c0:	00300093          	li	ra,3
 1c4:	00700113          	li	sp,7
 1c8:	0020a733          	slt	a4,ra,sp
 1cc:	00100393          	li	t2,1
 1d0:	48771263          	bne	a4,t2,654 <fail>

000001d4 <test_5>:
 1d4:	00500193          	li	gp,5
 1d8:	00700093          	li	ra,7
 1dc:	00300113          	li	sp,3
 1e0:	0020a733          	slt	a4,ra,sp
 1e4:	00000393          	li	t2,0
 1e8:	46771663          	bne	a4,t2,654 <fail>

000001ec <test_6>:
 1ec:	00600193          	li	gp,6
 1f0:	00000093          	li	ra,0
 1f4:	ffff8137          	lui	sp,0xffff8
 1f8:	0020a733          	slt	a4,ra,sp
 1fc:	00000393          	li	t2,0
 200:	44771a63          	bne	a4,t2,654 <fail>

00000204 <test_7>:
 204:	00700193          	li	gp,7
 208:	800000b7          	lui	ra,0x80000
 20c:	00000113          	li	sp,0
 210:	0020a733          	slt	a4,ra,sp
 214:	00100393          	li	t2,1
 218:	42771e63          	bne	a4,t2,654 <fail>

0000021c <test_8>:
 21c:	00800193          	li	gp,8
 220:	800000b7          	lui	ra,0x80000
 224:	ffff8137          	lui	sp,0xffff8
 228:	0020a733          	slt	a4,ra,sp
 22c:	00100393          	li	t2,1
 230:	42771263          	bne	a4,t2,654 <fail>

00000234 <test_9>:
 234:	00900193          	li	gp,9
 238:	00000093          	li	ra,0
 23c:	00008137          	lui	sp,0x8
 240:	fff10113          	add	sp,sp,-1 # 7fff <_end+0x5fff>
 244:	0020a733          	slt	a4,ra,sp
 248:	00100393          	li	t2,1
 24c:	40771463          	bne	a4,t2,654 <fail>

00000250 <test_10>:
 250:	00a00193          	li	gp,10
 254:	800000b7          	lui	ra,0x80000
 258:	fff08093          	add	ra,ra,-1 # 7fffffff <_end+0x7fffdfff>
 25c:	00000113          	li	sp,0
 260:	0020a733          	slt	a4,ra,sp
 264:	00000393          	li	t2,0
 268:	3e771663          	bne	a4,t2,654 <fail>

0000026c <test_11>:
 26c:	00b00193          	li	gp,11
 270:	800000b7          	lui	ra,0x80000
 274:	fff08093          	add	ra,ra,-1 # 7fffffff <_end+0x7fffdfff>
 278:	00008137          	lui	sp,0x8
 27c:	fff10113          	add	sp,sp,-1 # 7fff <_end+0x5fff>
 280:	0020a733          	slt	a4,ra,sp
 284:	00000393          	li	t2,0
 288:	3c771663          	bne	a4,t2,654 <fail>

0000028c <test_12>:
 28c:	00c00193          	li	gp,12
 290:	800000b7          	lui	ra,0x80000
 294:	00008137          	lui	sp,0x8
 298:	fff10113          	add	sp,sp,-1 # 7fff <_end+0x5fff>
 29c:	0020a733          	slt	a4,ra,sp
 2a0:	00100393          	li	t2,1
 2a4:	3a771863          	bne	a4,t2,654 <fail>

000002a8 <test_13>:
 2a8:	00d00193          	li	gp,13
 2ac:	800000b7          	lui	ra,0x80000
 2b0:	fff08093          	add	ra,ra,-1 # 7fffffff <_end+0x7fffdfff>
 2b4:	ffff8137          	lui	sp,0xffff8
 2b8:	0020a733          	slt	a4,ra,sp
 2bc:	00000393          	li	t2,0
 2c0:	38771a63          	bne	a4,t2,654 <fail>

000002c4 <test_14>:
 2c4:	00e00193          	li	gp,14
 2c8:	00000093          	li	ra,0
 2cc:	fff00113          	li	sp,-1
 2d0:	0020a733          	slt	a4,ra,sp
 2d4:	00000393          	li	t2,0
 2d8:	36771e63          	bne	a4,t2,654 <fail>

000002dc <test_15>:
 2dc:	00f00193          	li	gp,15
 2e0:	fff00093          	li	ra,-1
 2e4:	00100113          	li	sp,1
 2e8:	0020a733          	slt	a4,ra,sp
 2ec:	00100393          	li	t2,1
 2f0:	36771263          	bne	a4,t2,654 <fail>

000002f4 <test_16>:
 2f4:	01000193          	li	gp,16
 2f8:	fff00093          	li	ra,-1
 2fc:	fff00113          	li	sp,-1
 300:	0020a733          	slt	a4,ra,sp
 304:	00000393          	li	t2,0
 308:	34771663          	bne	a4,t2,654 <fail>

0000030c <test_17>:
 30c:	01100193          	li	gp,17
 310:	00e00093          	li	ra,14
 314:	00d00113          	li	sp,13
 318:	0020a0b3          	slt	ra,ra,sp
 31c:	00000393          	li	t2,0
 320:	32709a63          	bne	ra,t2,654 <fail>

00000324 <test_18>:
 324:	01200193          	li	gp,18
 328:	00b00093          	li	ra,11
 32c:	00d00113          	li	sp,13
 330:	0020a133          	slt	sp,ra,sp
 334:	00100393          	li	t2,1
 338:	30711e63          	bne	sp,t2,654 <fail>

0000033c <test_19>:
 33c:	01300193          	li	gp,19
 340:	00d00093          	li	ra,13
 344:	0010a0b3          	slt	ra,ra,ra
 348:	00000393          	li	t2,0
 34c:	30709463          	bne	ra,t2,654 <fail>

00000350 <test_20>:
 350:	01400193          	li	gp,20
 354:	00000213          	li	tp,0
 358:	00b00093          	li	ra,11
 35c:	00d00113          	li	sp,13
 360:	0020a733          	slt	a4,ra,sp
 364:	00070313          	mv	t1,a4
 368:	00120213          	add	tp,tp,1 # 1 <_start+0x1>
 36c:	00200293          	li	t0,2
 370:	fe5214e3          	bne	tp,t0,358 <test_20+0x8>
 374:	00100393          	li	t2,1
 378:	2c731e63          	bne	t1,t2,654 <fail>

0000037c <test_21>:
 37c:	01500193          	li	gp,21
 380:	00000213          	li	tp,0
 384:	00e00093          	li	ra,14
 388:	00d00113          	li	sp,13
 38c:	0020a733          	slt	a4,ra,sp
 390:	00000013          	nop
 394:	00070313          	mv	t1,a4
 398:	00120213          	add	tp,tp,1 # 1 <_start+0x1>
 39c:	00200293          	li	t0,2
 3a0:	fe5212e3          	bne	tp,t0,384 <test_21+0x8>
 3a4:	00000393          	li	t2,0
 3a8:	2a731663          	bne	t1,t2,654 <fail>

000003ac <test_22>:
 3ac:	01600193          	li	gp,22
 3b0:	00000213          	li	tp,0
 3b4:	00c00093          	li	ra,12
 3b8:	00d00113          	li	sp,13
 3bc:	0020a733          	slt	a4,ra,sp
 3c0:	00000013          	nop
 3c4:	00000013          	nop
 3c8:	00070313          	mv	t1,a4
 3cc:	00120213          	add	tp,tp,1 # 1 <_start+0x1>
 3d0:	00200293          	li	t0,2
 3d4:	fe5210e3          	bne	tp,t0,3b4 <test_22+0x8>
 3d8:	00100393          	li	t2,1
 3dc:	26731c63          	bne	t1,t2,654 <fail>

000003e0 <test_23>:
 3e0:	01700193          	li	gp,23
 3e4:	00000213          	li	tp,0
 3e8:	00e00093          	li	ra,14
 3ec:	00d00113          	li	sp,13
 3f0:	0020a733          	slt	a4,ra,sp
 3f4:	00120213          	add	tp,tp,1 # 1 <_start+0x1>
 3f8:	00200293          	li	t0,2
 3fc:	fe5216e3          	bne	tp,t0,3e8 <test_23+0x8>
 400:	00000393          	li	t2,0
 404:	24771863          	bne	a4,t2,654 <fail>

00000408 <test_24>:
 408:	01800193          	li	gp,24
 40c:	00000213          	li	tp,0
 410:	00b00093          	li	ra,11
 414:	00d00113          	li	sp,13
 418:	00000013          	nop
 41c:	0020a733          	slt	a4,ra,sp
 420:	00120213          	add	tp,tp,1 # 1 <_start+0x1>
 424:	00200293          	li	t0,2
 428:	fe5214e3          	bne	tp,t0,410 <test_24+0x8>
 42c:	00100393          	li	t2,1
 430:	22771263          	bne	a4,t2,654 <fail>

00000434 <test_25>:
 434:	01900193          	li	gp,25
 438:	00000213          	li	tp,0
 43c:	00f00093          	li	ra,15
 440:	00d00113          	li	sp,13
 444:	00000013          	nop
 448:	00000013          	nop
 44c:	0020a733          	slt	a4,ra,sp
 450:	00120213          	add	tp,tp,1 # 1 <_start+0x1>
 454:	00200293          	li	t0,2
 458:	fe5212e3          	bne	tp,t0,43c <test_25+0x8>
 45c:	00000393          	li	t2,0
 460:	1e771a63          	bne	a4,t2,654 <fail>

00000464 <test_26>:
 464:	01a00193          	li	gp,26
 468:	00000213          	li	tp,0
 46c:	00a00093          	li	ra,10
 470:	00000013          	nop
 474:	00d00113          	li	sp,13
 478:	0020a733          	slt	a4,ra,sp
 47c:	00120213          	add	tp,tp,1 # 1 <_start+0x1>
 480:	00200293          	li	t0,2
 484:	fe5214e3          	bne	tp,t0,46c <test_26+0x8>
 488:	00100393          	li	t2,1
 48c:	1c771463          	bne	a4,t2,654 <fail>

00000490 <test_27>:
 490:	01b00193          	li	gp,27
 494:	00000213          	li	tp,0
 498:	01000093          	li	ra,16
 49c:	00000013          	nop
 4a0:	00d00113          	li	sp,13
 4a4:	00000013          	nop
 4a8:	0020a733          	slt	a4,ra,sp
 4ac:	00120213          	add	tp,tp,1 # 1 <_start+0x1>
 4b0:	00200293          	li	t0,2
 4b4:	fe5212e3          	bne	tp,t0,498 <test_27+0x8>
 4b8:	00000393          	li	t2,0
 4bc:	18771c63          	bne	a4,t2,654 <fail>

000004c0 <test_28>:
 4c0:	01c00193          	li	gp,28
 4c4:	00000213          	li	tp,0
 4c8:	00900093          	li	ra,9
 4cc:	00000013          	nop
 4d0:	00000013          	nop
 4d4:	00d00113          	li	sp,13
 4d8:	0020a733          	slt	a4,ra,sp
 4dc:	00120213          	add	tp,tp,1 # 1 <_start+0x1>
 4e0:	00200293          	li	t0,2
 4e4:	fe5212e3          	bne	tp,t0,4c8 <test_28+0x8>
 4e8:	00100393          	li	t2,1
 4ec:	16771463          	bne	a4,t2,654 <fail>

000004f0 <test_29>:
 4f0:	01d00193          	li	gp,29
 4f4:	00000213          	li	tp,0
 4f8:	00d00113          	li	sp,13
 4fc:	01100093          	li	ra,17
 500:	0020a733          	slt	a4,ra,sp
 504:	00120213          	add	tp,tp,1 # 1 <_start+0x1>
 508:	00200293          	li	t0,2
 50c:	fe5216e3          	bne	tp,t0,4f8 <test_29+0x8>
 510:	00000393          	li	t2,0
 514:	14771063          	bne	a4,t2,654 <fail>

00000518 <test_30>:
 518:	01e00193          	li	gp,30
 51c:	00000213          	li	tp,0
 520:	00d00113          	li	sp,13
 524:	00800093          	li	ra,8
 528:	00000013          	nop
 52c:	0020a733          	slt	a4,ra,sp
 530:	00120213          	add	tp,tp,1 # 1 <_start+0x1>
 534:	00200293          	li	t0,2
 538:	fe5214e3          	bne	tp,t0,520 <test_30+0x8>
 53c:	00100393          	li	t2,1
 540:	10771a63          	bne	a4,t2,654 <fail>

00000544 <test_31>:
 544:	01f00193          	li	gp,31
 548:	00000213          	li	tp,0
 54c:	00d00113          	li	sp,13
 550:	01200093          	li	ra,18
 554:	00000013          	nop
 558:	00000013          	nop
 55c:	0020a733          	slt	a4,ra,sp
 560:	00120213          	add	tp,tp,1 # 1 <_start+0x1>
 564:	00200293          	li	t0,2
 568:	fe5212e3          	bne	tp,t0,54c <test_31+0x8>
 56c:	00000393          	li	t2,0
 570:	0e771263          	bne	a4,t2,654 <fail>

00000574 <test_32>:
 574:	02000193          	li	gp,32
 578:	00000213          	li	tp,0
 57c:	00d00113          	li	sp,13
 580:	00000013          	nop
 584:	00700093          	li	ra,7
 588:	0020a733          	slt	a4,ra,sp
 58c:	00120213          	add	tp,tp,1 # 1 <_start+0x1>
 590:	00200293          	li	t0,2
 594:	fe5214e3          	bne	tp,t0,57c <test_32+0x8>
 598:	00100393          	li	t2,1
 59c:	0a771c63          	bne	a4,t2,654 <fail>

000005a0 <test_33>:
 5a0:	02100193          	li	gp,33
 5a4:	00000213          	li	tp,0
 5a8:	00d00113          	li	sp,13
 5ac:	00000013          	nop
 5b0:	01300093          	li	ra,19
 5b4:	00000013          	nop
 5b8:	0020a733          	slt	a4,ra,sp
 5bc:	00120213          	add	tp,tp,1 # 1 <_start+0x1>
 5c0:	00200293          	li	t0,2
 5c4:	fe5212e3          	bne	tp,t0,5a8 <test_33+0x8>
 5c8:	00000393          	li	t2,0
 5cc:	08771463          	bne	a4,t2,654 <fail>

000005d0 <test_34>:
 5d0:	02200193          	li	gp,34
 5d4:	00000213          	li	tp,0
 5d8:	00d00113          	li	sp,13
 5dc:	00000013          	nop
 5e0:	00000013          	nop
 5e4:	00600093          	li	ra,6
 5e8:	0020a733          	slt	a4,ra,sp
 5ec:	00120213          	add	tp,tp,1 # 1 <_start+0x1>
 5f0:	00200293          	li	t0,2
 5f4:	fe5212e3          	bne	tp,t0,5d8 <test_34+0x8>
 5f8:	00100393          	li	t2,1
 5fc:	04771c63          	bne	a4,t2,654 <fail>

00000600 <test_35>:
 600:	02300193          	li	gp,35
 604:	fff00093          	li	ra,-1
 608:	00102133          	sgtz	sp,ra
 60c:	00000393          	li	t2,0
 610:	04711263          	bne	sp,t2,654 <fail>

00000614 <test_36>:
 614:	02400193          	li	gp,36
 618:	fff00093          	li	ra,-1
 61c:	0000a133          	sltz	sp,ra
 620:	00100393          	li	t2,1
 624:	02711863          	bne	sp,t2,654 <fail>

00000628 <test_37>:
 628:	02500193          	li	gp,37
 62c:	000020b3          	sltz	ra,zero
 630:	00000393          	li	t2,0
 634:	02709063          	bne	ra,t2,654 <fail>

00000638 <test_38>:
 638:	02600193          	li	gp,38
 63c:	01000093          	li	ra,16
 640:	01e00113          	li	sp,30
 644:	0020a033          	slt	zero,ra,sp
 648:	00000393          	li	t2,0
 64c:	00701463          	bne	zero,t2,654 <fail>
 650:	02301063          	bne	zero,gp,670 <pass>

00000654 <fail>:
 654:	0ff0000f          	fence
 658:	00018063          	beqz	gp,658 <fail+0x4>
 65c:	00119193          	sll	gp,gp,0x1
 660:	0011e193          	or	gp,gp,1
 664:	05d00893          	li	a7,93
 668:	00018513          	mv	a0,gp
 66c:	00000073          	ecall

00000670 <pass>:
 670:	0ff0000f          	fence
 674:	00100193          	li	gp,1
 678:	05d00893          	li	a7,93
 67c:	00000513          	li	a0,0
 680:	00000073          	ecall
 684:	c0001073          	unimp
	...
