
slti.elf:     file format elf32-littleriscv


Disassembly of section .text.init:

00000000 <_start>:
   0:	0040006f          	j	4 <reset_vector>

00000004 <reset_vector>:
   4:	00000093          	li	ra,0
   8:	00000113          	li	sp,0
   c:	00000193          	li	gp,0
  10:	00000213          	li	tp,0
  14:	00000293          	li	t0,0
  18:	00000313          	li	t1,0
  1c:	00000393          	li	t2,0
  20:	00000413          	li	s0,0
  24:	00000493          	li	s1,0
  28:	00000513          	li	a0,0
  2c:	00000593          	li	a1,0
  30:	00000613          	li	a2,0
  34:	00000693          	li	a3,0
  38:	00000713          	li	a4,0
  3c:	00000793          	li	a5,0
  40:	00000813          	li	a6,0
  44:	00000893          	li	a7,0
  48:	00000913          	li	s2,0
  4c:	00000993          	li	s3,0
  50:	00000a13          	li	s4,0
  54:	00000a93          	li	s5,0
  58:	00000b13          	li	s6,0
  5c:	00000b93          	li	s7,0
  60:	00000c13          	li	s8,0
  64:	00000c93          	li	s9,0
  68:	00000d13          	li	s10,0
  6c:	00000d93          	li	s11,0
  70:	00000e13          	li	t3,0
  74:	00000e93          	li	t4,0
  78:	00000f13          	li	t5,0
  7c:	00000f93          	li	t6,0
  80:	00000193          	li	gp,0
  84:	00100513          	li	a0,1
  88:	01f51513          	sll	a0,a0,0x1f
  8c:	02054263          	bltz	a0,b0 <reset_vector+0xac>
  90:	0ff0000f          	fence
  94:	04f00513          	li	a0,79
  98:	fea00fa3          	sb	a0,-1(zero) # ffffffff <_end+0xffffdfff>
  9c:	06b00513          	li	a0,107
  a0:	fea00fa3          	sb	a0,-1(zero) # ffffffff <_end+0xffffdfff>
  a4:	00a00513          	li	a0,10
  a8:	fea00fa3          	sb	a0,-1(zero) # ffffffff <_end+0xffffdfff>
  ac:	00100193          	li	gp,1
  b0:	30005073          	csrw	mstatus,0
  b4:	00000297          	auipc	t0,0x0
  b8:	01428293          	add	t0,t0,20 # c8 <test_2>
  bc:	34129073          	csrw	mepc,t0
  c0:	f1402573          	csrr	a0,mhartid
  c4:	30200073          	mret

000000c8 <test_2>:
  c8:	00200193          	li	gp,2
  cc:	00000093          	li	ra,0
  d0:	0000a713          	slti	a4,ra,0
  d4:	00000393          	li	t2,0
  d8:	26771263          	bne	a4,t2,33c <fail>

000000dc <test_3>:
  dc:	00300193          	li	gp,3
  e0:	00100093          	li	ra,1
  e4:	0010a713          	slti	a4,ra,1
  e8:	00000393          	li	t2,0
  ec:	24771863          	bne	a4,t2,33c <fail>

000000f0 <test_4>:
  f0:	00400193          	li	gp,4
  f4:	00300093          	li	ra,3
  f8:	0070a713          	slti	a4,ra,7
  fc:	00100393          	li	t2,1
 100:	22771e63          	bne	a4,t2,33c <fail>

00000104 <test_5>:
 104:	00500193          	li	gp,5
 108:	00700093          	li	ra,7
 10c:	0030a713          	slti	a4,ra,3
 110:	00000393          	li	t2,0
 114:	22771463          	bne	a4,t2,33c <fail>

00000118 <test_6>:
 118:	00600193          	li	gp,6
 11c:	00000093          	li	ra,0
 120:	8000a713          	slti	a4,ra,-2048
 124:	00000393          	li	t2,0
 128:	20771a63          	bne	a4,t2,33c <fail>

0000012c <test_7>:
 12c:	00700193          	li	gp,7
 130:	800000b7          	lui	ra,0x80000
 134:	0000a713          	slti	a4,ra,0
 138:	00100393          	li	t2,1
 13c:	20771063          	bne	a4,t2,33c <fail>

00000140 <test_8>:
 140:	00800193          	li	gp,8
 144:	800000b7          	lui	ra,0x80000
 148:	8000a713          	slti	a4,ra,-2048
 14c:	00100393          	li	t2,1
 150:	1e771663          	bne	a4,t2,33c <fail>

00000154 <test_9>:
 154:	00900193          	li	gp,9
 158:	00000093          	li	ra,0
 15c:	7ff0a713          	slti	a4,ra,2047
 160:	00100393          	li	t2,1
 164:	1c771c63          	bne	a4,t2,33c <fail>

00000168 <test_10>:
 168:	00a00193          	li	gp,10
 16c:	800000b7          	lui	ra,0x80000
 170:	fff08093          	add	ra,ra,-1 # 7fffffff <_end+0x7fffdfff>
 174:	0000a713          	slti	a4,ra,0
 178:	00000393          	li	t2,0
 17c:	1c771063          	bne	a4,t2,33c <fail>

00000180 <test_11>:
 180:	00b00193          	li	gp,11
 184:	800000b7          	lui	ra,0x80000
 188:	fff08093          	add	ra,ra,-1 # 7fffffff <_end+0x7fffdfff>
 18c:	7ff0a713          	slti	a4,ra,2047
 190:	00000393          	li	t2,0
 194:	1a771463          	bne	a4,t2,33c <fail>

00000198 <test_12>:
 198:	00c00193          	li	gp,12
 19c:	800000b7          	lui	ra,0x80000
 1a0:	7ff0a713          	slti	a4,ra,2047
 1a4:	00100393          	li	t2,1
 1a8:	18771a63          	bne	a4,t2,33c <fail>

000001ac <test_13>:
 1ac:	00d00193          	li	gp,13
 1b0:	800000b7          	lui	ra,0x80000
 1b4:	fff08093          	add	ra,ra,-1 # 7fffffff <_end+0x7fffdfff>
 1b8:	8000a713          	slti	a4,ra,-2048
 1bc:	00000393          	li	t2,0
 1c0:	16771e63          	bne	a4,t2,33c <fail>

000001c4 <test_14>:
 1c4:	00e00193          	li	gp,14
 1c8:	00000093          	li	ra,0
 1cc:	fff0a713          	slti	a4,ra,-1
 1d0:	00000393          	li	t2,0
 1d4:	16771463          	bne	a4,t2,33c <fail>

000001d8 <test_15>:
 1d8:	00f00193          	li	gp,15
 1dc:	fff00093          	li	ra,-1
 1e0:	0010a713          	slti	a4,ra,1
 1e4:	00100393          	li	t2,1
 1e8:	14771a63          	bne	a4,t2,33c <fail>

000001ec <test_16>:
 1ec:	01000193          	li	gp,16
 1f0:	fff00093          	li	ra,-1
 1f4:	fff0a713          	slti	a4,ra,-1
 1f8:	00000393          	li	t2,0
 1fc:	14771063          	bne	a4,t2,33c <fail>

00000200 <test_17>:
 200:	01100193          	li	gp,17
 204:	00b00093          	li	ra,11
 208:	00d0a093          	slti	ra,ra,13
 20c:	00100393          	li	t2,1
 210:	12709663          	bne	ra,t2,33c <fail>

00000214 <test_18>:
 214:	01200193          	li	gp,18
 218:	00000213          	li	tp,0
 21c:	00f00093          	li	ra,15
 220:	00a0a713          	slti	a4,ra,10
 224:	00070313          	mv	t1,a4
 228:	00120213          	add	tp,tp,1 # 1 <_start+0x1>
 22c:	00200293          	li	t0,2
 230:	fe5216e3          	bne	tp,t0,21c <test_18+0x8>
 234:	00000393          	li	t2,0
 238:	10731263          	bne	t1,t2,33c <fail>

0000023c <test_19>:
 23c:	01300193          	li	gp,19
 240:	00000213          	li	tp,0
 244:	00a00093          	li	ra,10
 248:	0100a713          	slti	a4,ra,16
 24c:	00000013          	nop
 250:	00070313          	mv	t1,a4
 254:	00120213          	add	tp,tp,1 # 1 <_start+0x1>
 258:	00200293          	li	t0,2
 25c:	fe5214e3          	bne	tp,t0,244 <test_19+0x8>
 260:	00100393          	li	t2,1
 264:	0c731c63          	bne	t1,t2,33c <fail>

00000268 <test_20>:
 268:	01400193          	li	gp,20
 26c:	00000213          	li	tp,0
 270:	01000093          	li	ra,16
 274:	0090a713          	slti	a4,ra,9
 278:	00000013          	nop
 27c:	00000013          	nop
 280:	00070313          	mv	t1,a4
 284:	00120213          	add	tp,tp,1 # 1 <_start+0x1>
 288:	00200293          	li	t0,2
 28c:	fe5212e3          	bne	tp,t0,270 <test_20+0x8>
 290:	00000393          	li	t2,0
 294:	0a731463          	bne	t1,t2,33c <fail>

00000298 <test_21>:
 298:	01500193          	li	gp,21
 29c:	00000213          	li	tp,0
 2a0:	00b00093          	li	ra,11
 2a4:	00f0a713          	slti	a4,ra,15
 2a8:	00120213          	add	tp,tp,1 # 1 <_start+0x1>
 2ac:	00200293          	li	t0,2
 2b0:	fe5218e3          	bne	tp,t0,2a0 <test_21+0x8>
 2b4:	00100393          	li	t2,1
 2b8:	08771263          	bne	a4,t2,33c <fail>

000002bc <test_22>:
 2bc:	01600193          	li	gp,22
 2c0:	00000213          	li	tp,0
 2c4:	01100093          	li	ra,17
 2c8:	00000013          	nop
 2cc:	0080a713          	slti	a4,ra,8
 2d0:	00120213          	add	tp,tp,1 # 1 <_start+0x1>
 2d4:	00200293          	li	t0,2
 2d8:	fe5216e3          	bne	tp,t0,2c4 <test_22+0x8>
 2dc:	00000393          	li	t2,0
 2e0:	04771e63          	bne	a4,t2,33c <fail>

000002e4 <test_23>:
 2e4:	01700193          	li	gp,23
 2e8:	00000213          	li	tp,0
 2ec:	00c00093          	li	ra,12
 2f0:	00000013          	nop
 2f4:	00000013          	nop
 2f8:	00e0a713          	slti	a4,ra,14
 2fc:	00120213          	add	tp,tp,1 # 1 <_start+0x1>
 300:	00200293          	li	t0,2
 304:	fe5214e3          	bne	tp,t0,2ec <test_23+0x8>
 308:	00100393          	li	t2,1
 30c:	02771863          	bne	a4,t2,33c <fail>

00000310 <test_24>:
 310:	01800193          	li	gp,24
 314:	fff02093          	slti	ra,zero,-1
 318:	00000393          	li	t2,0
 31c:	02709063          	bne	ra,t2,33c <fail>

00000320 <test_25>:
 320:	01900193          	li	gp,25
 324:	00ff00b7          	lui	ra,0xff0
 328:	0ff08093          	add	ra,ra,255 # ff00ff <_end+0xfee0ff>
 32c:	fff0a013          	slti	zero,ra,-1
 330:	00000393          	li	t2,0
 334:	00701463          	bne	zero,t2,33c <fail>
 338:	02301263          	bne	zero,gp,35c <pass>

0000033c <fail>:
 33c:	0ff0000f          	fence
 340:	04e00513          	li	a0,78
 344:	fea00fa3          	sb	a0,-1(zero) # ffffffff <_end+0xffffdfff>
 348:	06f00513          	li	a0,111
 34c:	fea00fa3          	sb	a0,-1(zero) # ffffffff <_end+0xffffdfff>
 350:	00a00513          	li	a0,10
 354:	fea00fa3          	sb	a0,-1(zero) # ffffffff <_end+0xffffdfff>
 358:	c0001073          	unimp

0000035c <pass>:
 35c:	0ff0000f          	fence
 360:	04f00513          	li	a0,79
 364:	fea00fa3          	sb	a0,-1(zero) # ffffffff <_end+0xffffdfff>
 368:	06b00513          	li	a0,107
 36c:	fea00fa3          	sb	a0,-1(zero) # ffffffff <_end+0xffffdfff>
 370:	00a00513          	li	a0,10
 374:	fea00fa3          	sb	a0,-1(zero) # ffffffff <_end+0xffffdfff>
 378:	00100193          	li	gp,1
 37c:	c0001073          	unimp
 380:	c0001073          	unimp
