
srai.elf:     file format elf32-littleriscv


Disassembly of section .text.init:

00000000 <_start>:
   0:	0040006f          	j	4 <reset_vector>

00000004 <reset_vector>:
   4:	00000093          	li	ra,0
   8:	00000113          	li	sp,0
   c:	00000193          	li	gp,0
  10:	00000213          	li	tp,0
  14:	00000293          	li	t0,0
  18:	00000313          	li	t1,0
  1c:	00000393          	li	t2,0
  20:	00000413          	li	s0,0
  24:	00000493          	li	s1,0
  28:	00000513          	li	a0,0
  2c:	00000593          	li	a1,0
  30:	00000613          	li	a2,0
  34:	00000693          	li	a3,0
  38:	00000713          	li	a4,0
  3c:	00000793          	li	a5,0
  40:	00000813          	li	a6,0
  44:	00000893          	li	a7,0
  48:	00000913          	li	s2,0
  4c:	00000993          	li	s3,0
  50:	00000a13          	li	s4,0
  54:	00000a93          	li	s5,0
  58:	00000b13          	li	s6,0
  5c:	00000b93          	li	s7,0
  60:	00000c13          	li	s8,0
  64:	00000c93          	li	s9,0
  68:	00000d13          	li	s10,0
  6c:	00000d93          	li	s11,0
  70:	00000e13          	li	t3,0
  74:	00000e93          	li	t4,0
  78:	00000f13          	li	t5,0
  7c:	00000f93          	li	t6,0
  80:	00000193          	li	gp,0
  84:	00100513          	li	a0,1
  88:	01f51513          	sll	a0,a0,0x1f
  8c:	02054263          	bltz	a0,b0 <reset_vector+0xac>
  90:	0ff0000f          	fence
  94:	04f00513          	li	a0,79
  98:	fea00fa3          	sb	a0,-1(zero) # ffffffff <_end+0xffffdfff>
  9c:	06b00513          	li	a0,107
  a0:	fea00fa3          	sb	a0,-1(zero) # ffffffff <_end+0xffffdfff>
  a4:	00a00513          	li	a0,10
  a8:	fea00fa3          	sb	a0,-1(zero) # ffffffff <_end+0xffffdfff>
  ac:	00100193          	li	gp,1
  b0:	30005073          	csrw	mstatus,0
  b4:	00000297          	auipc	t0,0x0
  b8:	01428293          	add	t0,t0,20 # c8 <test_2>
  bc:	34129073          	csrw	mepc,t0
  c0:	f1402573          	csrr	a0,mhartid
  c4:	30200073          	mret

000000c8 <test_2>:
  c8:	00200193          	li	gp,2
  cc:	00000093          	li	ra,0
  d0:	4000d713          	sra	a4,ra,0x0
  d4:	00000393          	li	t2,0
  d8:	2a771463          	bne	a4,t2,380 <fail>

000000dc <test_3>:
  dc:	00300193          	li	gp,3
  e0:	800000b7          	lui	ra,0x80000
  e4:	4010d713          	sra	a4,ra,0x1
  e8:	c00003b7          	lui	t2,0xc0000
  ec:	28771a63          	bne	a4,t2,380 <fail>

000000f0 <test_4>:
  f0:	00400193          	li	gp,4
  f4:	800000b7          	lui	ra,0x80000
  f8:	4070d713          	sra	a4,ra,0x7
  fc:	ff0003b7          	lui	t2,0xff000
 100:	28771063          	bne	a4,t2,380 <fail>

00000104 <test_5>:
 104:	00500193          	li	gp,5
 108:	800000b7          	lui	ra,0x80000
 10c:	40e0d713          	sra	a4,ra,0xe
 110:	fffe03b7          	lui	t2,0xfffe0
 114:	26771663          	bne	a4,t2,380 <fail>

00000118 <test_6>:
 118:	00600193          	li	gp,6
 11c:	800000b7          	lui	ra,0x80000
 120:	00108093          	add	ra,ra,1 # 80000001 <_end+0x7fffe001>
 124:	41f0d713          	sra	a4,ra,0x1f
 128:	fff00393          	li	t2,-1
 12c:	24771a63          	bne	a4,t2,380 <fail>

00000130 <test_7>:
 130:	00700193          	li	gp,7
 134:	800000b7          	lui	ra,0x80000
 138:	fff08093          	add	ra,ra,-1 # 7fffffff <_end+0x7fffdfff>
 13c:	4000d713          	sra	a4,ra,0x0
 140:	800003b7          	lui	t2,0x80000
 144:	fff38393          	add	t2,t2,-1 # 7fffffff <_end+0x7fffdfff>
 148:	22771c63          	bne	a4,t2,380 <fail>

0000014c <test_8>:
 14c:	00800193          	li	gp,8
 150:	800000b7          	lui	ra,0x80000
 154:	fff08093          	add	ra,ra,-1 # 7fffffff <_end+0x7fffdfff>
 158:	4010d713          	sra	a4,ra,0x1
 15c:	400003b7          	lui	t2,0x40000
 160:	fff38393          	add	t2,t2,-1 # 3fffffff <_end+0x3fffdfff>
 164:	20771e63          	bne	a4,t2,380 <fail>

00000168 <test_9>:
 168:	00900193          	li	gp,9
 16c:	800000b7          	lui	ra,0x80000
 170:	fff08093          	add	ra,ra,-1 # 7fffffff <_end+0x7fffdfff>
 174:	4070d713          	sra	a4,ra,0x7
 178:	010003b7          	lui	t2,0x1000
 17c:	fff38393          	add	t2,t2,-1 # ffffff <_end+0xffdfff>
 180:	20771063          	bne	a4,t2,380 <fail>

00000184 <test_10>:
 184:	00a00193          	li	gp,10
 188:	800000b7          	lui	ra,0x80000
 18c:	fff08093          	add	ra,ra,-1 # 7fffffff <_end+0x7fffdfff>
 190:	40e0d713          	sra	a4,ra,0xe
 194:	000203b7          	lui	t2,0x20
 198:	fff38393          	add	t2,t2,-1 # 1ffff <_end+0x1dfff>
 19c:	1e771263          	bne	a4,t2,380 <fail>

000001a0 <test_11>:
 1a0:	00b00193          	li	gp,11
 1a4:	800000b7          	lui	ra,0x80000
 1a8:	fff08093          	add	ra,ra,-1 # 7fffffff <_end+0x7fffdfff>
 1ac:	41f0d713          	sra	a4,ra,0x1f
 1b0:	00000393          	li	t2,0
 1b4:	1c771663          	bne	a4,t2,380 <fail>

000001b8 <test_12>:
 1b8:	00c00193          	li	gp,12
 1bc:	818180b7          	lui	ra,0x81818
 1c0:	18108093          	add	ra,ra,385 # 81818181 <_end+0x81816181>
 1c4:	4000d713          	sra	a4,ra,0x0
 1c8:	818183b7          	lui	t2,0x81818
 1cc:	18138393          	add	t2,t2,385 # 81818181 <_end+0x81816181>
 1d0:	1a771863          	bne	a4,t2,380 <fail>

000001d4 <test_13>:
 1d4:	00d00193          	li	gp,13
 1d8:	818180b7          	lui	ra,0x81818
 1dc:	18108093          	add	ra,ra,385 # 81818181 <_end+0x81816181>
 1e0:	4010d713          	sra	a4,ra,0x1
 1e4:	c0c0c3b7          	lui	t2,0xc0c0c
 1e8:	0c038393          	add	t2,t2,192 # c0c0c0c0 <_end+0xc0c0a0c0>
 1ec:	18771a63          	bne	a4,t2,380 <fail>

000001f0 <test_14>:
 1f0:	00e00193          	li	gp,14
 1f4:	818180b7          	lui	ra,0x81818
 1f8:	18108093          	add	ra,ra,385 # 81818181 <_end+0x81816181>
 1fc:	4070d713          	sra	a4,ra,0x7
 200:	ff0303b7          	lui	t2,0xff030
 204:	30338393          	add	t2,t2,771 # ff030303 <_end+0xff02e303>
 208:	16771c63          	bne	a4,t2,380 <fail>

0000020c <test_15>:
 20c:	00f00193          	li	gp,15
 210:	818180b7          	lui	ra,0x81818
 214:	18108093          	add	ra,ra,385 # 81818181 <_end+0x81816181>
 218:	40e0d713          	sra	a4,ra,0xe
 21c:	fffe03b7          	lui	t2,0xfffe0
 220:	60638393          	add	t2,t2,1542 # fffe0606 <_end+0xfffde606>
 224:	14771e63          	bne	a4,t2,380 <fail>

00000228 <test_16>:
 228:	01000193          	li	gp,16
 22c:	818180b7          	lui	ra,0x81818
 230:	18108093          	add	ra,ra,385 # 81818181 <_end+0x81816181>
 234:	41f0d713          	sra	a4,ra,0x1f
 238:	fff00393          	li	t2,-1
 23c:	14771263          	bne	a4,t2,380 <fail>

00000240 <test_17>:
 240:	01100193          	li	gp,17
 244:	800000b7          	lui	ra,0x80000
 248:	4070d093          	sra	ra,ra,0x7
 24c:	ff0003b7          	lui	t2,0xff000
 250:	12709863          	bne	ra,t2,380 <fail>

00000254 <test_18>:
 254:	01200193          	li	gp,18
 258:	00000213          	li	tp,0
 25c:	800000b7          	lui	ra,0x80000
 260:	4070d713          	sra	a4,ra,0x7
 264:	00070313          	mv	t1,a4
 268:	00120213          	add	tp,tp,1 # 1 <_start+0x1>
 26c:	00200293          	li	t0,2
 270:	fe5216e3          	bne	tp,t0,25c <test_18+0x8>
 274:	ff0003b7          	lui	t2,0xff000
 278:	10731463          	bne	t1,t2,380 <fail>

0000027c <test_19>:
 27c:	01300193          	li	gp,19
 280:	00000213          	li	tp,0
 284:	800000b7          	lui	ra,0x80000
 288:	40e0d713          	sra	a4,ra,0xe
 28c:	00000013          	nop
 290:	00070313          	mv	t1,a4
 294:	00120213          	add	tp,tp,1 # 1 <_start+0x1>
 298:	00200293          	li	t0,2
 29c:	fe5214e3          	bne	tp,t0,284 <test_19+0x8>
 2a0:	fffe03b7          	lui	t2,0xfffe0
 2a4:	0c731e63          	bne	t1,t2,380 <fail>

000002a8 <test_20>:
 2a8:	01400193          	li	gp,20
 2ac:	00000213          	li	tp,0
 2b0:	800000b7          	lui	ra,0x80000
 2b4:	00108093          	add	ra,ra,1 # 80000001 <_end+0x7fffe001>
 2b8:	41f0d713          	sra	a4,ra,0x1f
 2bc:	00000013          	nop
 2c0:	00000013          	nop
 2c4:	00070313          	mv	t1,a4
 2c8:	00120213          	add	tp,tp,1 # 1 <_start+0x1>
 2cc:	00200293          	li	t0,2
 2d0:	fe5210e3          	bne	tp,t0,2b0 <test_20+0x8>
 2d4:	fff00393          	li	t2,-1
 2d8:	0a731463          	bne	t1,t2,380 <fail>

000002dc <test_21>:
 2dc:	01500193          	li	gp,21
 2e0:	00000213          	li	tp,0
 2e4:	800000b7          	lui	ra,0x80000
 2e8:	4070d713          	sra	a4,ra,0x7
 2ec:	00120213          	add	tp,tp,1 # 1 <_start+0x1>
 2f0:	00200293          	li	t0,2
 2f4:	fe5218e3          	bne	tp,t0,2e4 <test_21+0x8>
 2f8:	ff0003b7          	lui	t2,0xff000
 2fc:	08771263          	bne	a4,t2,380 <fail>

00000300 <test_22>:
 300:	01600193          	li	gp,22
 304:	00000213          	li	tp,0
 308:	800000b7          	lui	ra,0x80000
 30c:	00000013          	nop
 310:	40e0d713          	sra	a4,ra,0xe
 314:	00120213          	add	tp,tp,1 # 1 <_start+0x1>
 318:	00200293          	li	t0,2
 31c:	fe5216e3          	bne	tp,t0,308 <test_22+0x8>
 320:	fffe03b7          	lui	t2,0xfffe0
 324:	04771e63          	bne	a4,t2,380 <fail>

00000328 <test_23>:
 328:	01700193          	li	gp,23
 32c:	00000213          	li	tp,0
 330:	800000b7          	lui	ra,0x80000
 334:	00108093          	add	ra,ra,1 # 80000001 <_end+0x7fffe001>
 338:	00000013          	nop
 33c:	00000013          	nop
 340:	41f0d713          	sra	a4,ra,0x1f
 344:	00120213          	add	tp,tp,1 # 1 <_start+0x1>
 348:	00200293          	li	t0,2
 34c:	fe5212e3          	bne	tp,t0,330 <test_23+0x8>
 350:	fff00393          	li	t2,-1
 354:	02771663          	bne	a4,t2,380 <fail>

00000358 <test_24>:
 358:	01800193          	li	gp,24
 35c:	40405093          	sra	ra,zero,0x4
 360:	00000393          	li	t2,0
 364:	00709e63          	bne	ra,t2,380 <fail>

00000368 <test_25>:
 368:	01900193          	li	gp,25
 36c:	02100093          	li	ra,33
 370:	40a0d013          	sra	zero,ra,0xa
 374:	00000393          	li	t2,0
 378:	00701463          	bne	zero,t2,380 <fail>
 37c:	02301263          	bne	zero,gp,3a0 <pass>

00000380 <fail>:
 380:	0ff0000f          	fence
 384:	04e00513          	li	a0,78
 388:	fea00fa3          	sb	a0,-1(zero) # ffffffff <_end+0xffffdfff>
 38c:	06f00513          	li	a0,111
 390:	fea00fa3          	sb	a0,-1(zero) # ffffffff <_end+0xffffdfff>
 394:	00a00513          	li	a0,10
 398:	fea00fa3          	sb	a0,-1(zero) # ffffffff <_end+0xffffdfff>
 39c:	c0001073          	unimp

000003a0 <pass>:
 3a0:	0ff0000f          	fence
 3a4:	04f00513          	li	a0,79
 3a8:	fea00fa3          	sb	a0,-1(zero) # ffffffff <_end+0xffffdfff>
 3ac:	06b00513          	li	a0,107
 3b0:	fea00fa3          	sb	a0,-1(zero) # ffffffff <_end+0xffffdfff>
 3b4:	00a00513          	li	a0,10
 3b8:	fea00fa3          	sb	a0,-1(zero) # ffffffff <_end+0xffffdfff>
 3bc:	00100193          	li	gp,1
 3c0:	c0001073          	unimp
 3c4:	c0001073          	unimp
	...
