
srli.elf:     file format elf32-littleriscv


Disassembly of section .text.init:

00000000 <_start>:
   0:	0040006f          	j	4 <reset_vector>

00000004 <reset_vector>:
   4:	00000093          	li	ra,0
   8:	00000113          	li	sp,0
   c:	00000193          	li	gp,0
  10:	00000213          	li	tp,0
  14:	00000293          	li	t0,0
  18:	00000313          	li	t1,0
  1c:	00000393          	li	t2,0
  20:	00000413          	li	s0,0
  24:	00000493          	li	s1,0
  28:	00000513          	li	a0,0
  2c:	00000593          	li	a1,0
  30:	00000613          	li	a2,0
  34:	00000693          	li	a3,0
  38:	00000713          	li	a4,0
  3c:	00000793          	li	a5,0
  40:	00000813          	li	a6,0
  44:	00000893          	li	a7,0
  48:	00000913          	li	s2,0
  4c:	00000993          	li	s3,0
  50:	00000a13          	li	s4,0
  54:	00000a93          	li	s5,0
  58:	00000b13          	li	s6,0
  5c:	00000b93          	li	s7,0
  60:	00000c13          	li	s8,0
  64:	00000c93          	li	s9,0
  68:	00000d13          	li	s10,0
  6c:	00000d93          	li	s11,0
  70:	00000e13          	li	t3,0
  74:	00000e93          	li	t4,0
  78:	00000f13          	li	t5,0
  7c:	00000f93          	li	t6,0
  80:	00000193          	li	gp,0
  84:	00100513          	li	a0,1
  88:	01f51513          	sll	a0,a0,0x1f
  8c:	02054263          	bltz	a0,b0 <reset_vector+0xac>
  90:	0ff0000f          	fence
  94:	04f00513          	li	a0,79
  98:	fea00fa3          	sb	a0,-1(zero) # ffffffff <_end+0xffffdfff>
  9c:	06b00513          	li	a0,107
  a0:	fea00fa3          	sb	a0,-1(zero) # ffffffff <_end+0xffffdfff>
  a4:	00a00513          	li	a0,10
  a8:	fea00fa3          	sb	a0,-1(zero) # ffffffff <_end+0xffffdfff>
  ac:	00100193          	li	gp,1
  b0:	30005073          	csrw	mstatus,0
  b4:	00000297          	auipc	t0,0x0
  b8:	01428293          	add	t0,t0,20 # c8 <test_2>
  bc:	34129073          	csrw	mepc,t0
  c0:	f1402573          	csrr	a0,mhartid
  c4:	30200073          	mret

000000c8 <test_2>:
  c8:	00200193          	li	gp,2
  cc:	800000b7          	lui	ra,0x80000
  d0:	0000d713          	srl	a4,ra,0x0
  d4:	800003b7          	lui	t2,0x80000
  d8:	28771863          	bne	a4,t2,368 <fail>

000000dc <test_3>:
  dc:	00300193          	li	gp,3
  e0:	800000b7          	lui	ra,0x80000
  e4:	0010d713          	srl	a4,ra,0x1
  e8:	400003b7          	lui	t2,0x40000
  ec:	26771e63          	bne	a4,t2,368 <fail>

000000f0 <test_4>:
  f0:	00400193          	li	gp,4
  f4:	800000b7          	lui	ra,0x80000
  f8:	0070d713          	srl	a4,ra,0x7
  fc:	010003b7          	lui	t2,0x1000
 100:	26771463          	bne	a4,t2,368 <fail>

00000104 <test_5>:
 104:	00500193          	li	gp,5
 108:	800000b7          	lui	ra,0x80000
 10c:	00e0d713          	srl	a4,ra,0xe
 110:	000203b7          	lui	t2,0x20
 114:	24771a63          	bne	a4,t2,368 <fail>

00000118 <test_6>:
 118:	00600193          	li	gp,6
 11c:	800000b7          	lui	ra,0x80000
 120:	00108093          	add	ra,ra,1 # 80000001 <_end+0x7fffe001>
 124:	01f0d713          	srl	a4,ra,0x1f
 128:	00100393          	li	t2,1
 12c:	22771e63          	bne	a4,t2,368 <fail>

00000130 <test_7>:
 130:	00700193          	li	gp,7
 134:	fff00093          	li	ra,-1
 138:	0000d713          	srl	a4,ra,0x0
 13c:	fff00393          	li	t2,-1
 140:	22771463          	bne	a4,t2,368 <fail>

00000144 <test_8>:
 144:	00800193          	li	gp,8
 148:	fff00093          	li	ra,-1
 14c:	0010d713          	srl	a4,ra,0x1
 150:	800003b7          	lui	t2,0x80000
 154:	fff38393          	add	t2,t2,-1 # 7fffffff <_end+0x7fffdfff>
 158:	20771863          	bne	a4,t2,368 <fail>

0000015c <test_9>:
 15c:	00900193          	li	gp,9
 160:	fff00093          	li	ra,-1
 164:	0070d713          	srl	a4,ra,0x7
 168:	020003b7          	lui	t2,0x2000
 16c:	fff38393          	add	t2,t2,-1 # 1ffffff <_end+0x1ffdfff>
 170:	1e771c63          	bne	a4,t2,368 <fail>

00000174 <test_10>:
 174:	00a00193          	li	gp,10
 178:	fff00093          	li	ra,-1
 17c:	00e0d713          	srl	a4,ra,0xe
 180:	000403b7          	lui	t2,0x40
 184:	fff38393          	add	t2,t2,-1 # 3ffff <_end+0x3dfff>
 188:	1e771063          	bne	a4,t2,368 <fail>

0000018c <test_11>:
 18c:	00b00193          	li	gp,11
 190:	fff00093          	li	ra,-1
 194:	01f0d713          	srl	a4,ra,0x1f
 198:	00100393          	li	t2,1
 19c:	1c771663          	bne	a4,t2,368 <fail>

000001a0 <test_12>:
 1a0:	00c00193          	li	gp,12
 1a4:	212120b7          	lui	ra,0x21212
 1a8:	12108093          	add	ra,ra,289 # 21212121 <_end+0x21210121>
 1ac:	0000d713          	srl	a4,ra,0x0
 1b0:	212123b7          	lui	t2,0x21212
 1b4:	12138393          	add	t2,t2,289 # 21212121 <_end+0x21210121>
 1b8:	1a771863          	bne	a4,t2,368 <fail>

000001bc <test_13>:
 1bc:	00d00193          	li	gp,13
 1c0:	212120b7          	lui	ra,0x21212
 1c4:	12108093          	add	ra,ra,289 # 21212121 <_end+0x21210121>
 1c8:	0010d713          	srl	a4,ra,0x1
 1cc:	109093b7          	lui	t2,0x10909
 1d0:	09038393          	add	t2,t2,144 # 10909090 <_end+0x10907090>
 1d4:	18771a63          	bne	a4,t2,368 <fail>

000001d8 <test_14>:
 1d8:	00e00193          	li	gp,14
 1dc:	212120b7          	lui	ra,0x21212
 1e0:	12108093          	add	ra,ra,289 # 21212121 <_end+0x21210121>
 1e4:	0070d713          	srl	a4,ra,0x7
 1e8:	004243b7          	lui	t2,0x424
 1ec:	24238393          	add	t2,t2,578 # 424242 <_end+0x422242>
 1f0:	16771c63          	bne	a4,t2,368 <fail>

000001f4 <test_15>:
 1f4:	00f00193          	li	gp,15
 1f8:	212120b7          	lui	ra,0x21212
 1fc:	12108093          	add	ra,ra,289 # 21212121 <_end+0x21210121>
 200:	00e0d713          	srl	a4,ra,0xe
 204:	000083b7          	lui	t2,0x8
 208:	48438393          	add	t2,t2,1156 # 8484 <_end+0x6484>
 20c:	14771e63          	bne	a4,t2,368 <fail>

00000210 <test_16>:
 210:	01000193          	li	gp,16
 214:	212120b7          	lui	ra,0x21212
 218:	12108093          	add	ra,ra,289 # 21212121 <_end+0x21210121>
 21c:	01f0d713          	srl	a4,ra,0x1f
 220:	00000393          	li	t2,0
 224:	14771263          	bne	a4,t2,368 <fail>

00000228 <test_17>:
 228:	01100193          	li	gp,17
 22c:	800000b7          	lui	ra,0x80000
 230:	0070d093          	srl	ra,ra,0x7
 234:	010003b7          	lui	t2,0x1000
 238:	12709863          	bne	ra,t2,368 <fail>

0000023c <test_18>:
 23c:	01200193          	li	gp,18
 240:	00000213          	li	tp,0
 244:	800000b7          	lui	ra,0x80000
 248:	0070d713          	srl	a4,ra,0x7
 24c:	00070313          	mv	t1,a4
 250:	00120213          	add	tp,tp,1 # 1 <_start+0x1>
 254:	00200293          	li	t0,2
 258:	fe5216e3          	bne	tp,t0,244 <test_18+0x8>
 25c:	010003b7          	lui	t2,0x1000
 260:	10731463          	bne	t1,t2,368 <fail>

00000264 <test_19>:
 264:	01300193          	li	gp,19
 268:	00000213          	li	tp,0
 26c:	800000b7          	lui	ra,0x80000
 270:	00e0d713          	srl	a4,ra,0xe
 274:	00000013          	nop
 278:	00070313          	mv	t1,a4
 27c:	00120213          	add	tp,tp,1 # 1 <_start+0x1>
 280:	00200293          	li	t0,2
 284:	fe5214e3          	bne	tp,t0,26c <test_19+0x8>
 288:	000203b7          	lui	t2,0x20
 28c:	0c731e63          	bne	t1,t2,368 <fail>

00000290 <test_20>:
 290:	01400193          	li	gp,20
 294:	00000213          	li	tp,0
 298:	800000b7          	lui	ra,0x80000
 29c:	00108093          	add	ra,ra,1 # 80000001 <_end+0x7fffe001>
 2a0:	01f0d713          	srl	a4,ra,0x1f
 2a4:	00000013          	nop
 2a8:	00000013          	nop
 2ac:	00070313          	mv	t1,a4
 2b0:	00120213          	add	tp,tp,1 # 1 <_start+0x1>
 2b4:	00200293          	li	t0,2
 2b8:	fe5210e3          	bne	tp,t0,298 <test_20+0x8>
 2bc:	00100393          	li	t2,1
 2c0:	0a731463          	bne	t1,t2,368 <fail>

000002c4 <test_21>:
 2c4:	01500193          	li	gp,21
 2c8:	00000213          	li	tp,0
 2cc:	800000b7          	lui	ra,0x80000
 2d0:	0070d713          	srl	a4,ra,0x7
 2d4:	00120213          	add	tp,tp,1 # 1 <_start+0x1>
 2d8:	00200293          	li	t0,2
 2dc:	fe5218e3          	bne	tp,t0,2cc <test_21+0x8>
 2e0:	010003b7          	lui	t2,0x1000
 2e4:	08771263          	bne	a4,t2,368 <fail>

000002e8 <test_22>:
 2e8:	01600193          	li	gp,22
 2ec:	00000213          	li	tp,0
 2f0:	800000b7          	lui	ra,0x80000
 2f4:	00000013          	nop
 2f8:	00e0d713          	srl	a4,ra,0xe
 2fc:	00120213          	add	tp,tp,1 # 1 <_start+0x1>
 300:	00200293          	li	t0,2
 304:	fe5216e3          	bne	tp,t0,2f0 <test_22+0x8>
 308:	000203b7          	lui	t2,0x20
 30c:	04771e63          	bne	a4,t2,368 <fail>

00000310 <test_23>:
 310:	01700193          	li	gp,23
 314:	00000213          	li	tp,0
 318:	800000b7          	lui	ra,0x80000
 31c:	00108093          	add	ra,ra,1 # 80000001 <_end+0x7fffe001>
 320:	00000013          	nop
 324:	00000013          	nop
 328:	01f0d713          	srl	a4,ra,0x1f
 32c:	00120213          	add	tp,tp,1 # 1 <_start+0x1>
 330:	00200293          	li	t0,2
 334:	fe5212e3          	bne	tp,t0,318 <test_23+0x8>
 338:	00100393          	li	t2,1
 33c:	02771663          	bne	a4,t2,368 <fail>

00000340 <test_24>:
 340:	01800193          	li	gp,24
 344:	00405093          	srl	ra,zero,0x4
 348:	00000393          	li	t2,0
 34c:	00709e63          	bne	ra,t2,368 <fail>

00000350 <test_25>:
 350:	01900193          	li	gp,25
 354:	02100093          	li	ra,33
 358:	00a0d013          	srl	zero,ra,0xa
 35c:	00000393          	li	t2,0
 360:	00701463          	bne	zero,t2,368 <fail>
 364:	02301263          	bne	zero,gp,388 <pass>

00000368 <fail>:
 368:	0ff0000f          	fence
 36c:	04e00513          	li	a0,78
 370:	fea00fa3          	sb	a0,-1(zero) # ffffffff <_end+0xffffdfff>
 374:	06f00513          	li	a0,111
 378:	fea00fa3          	sb	a0,-1(zero) # ffffffff <_end+0xffffdfff>
 37c:	00a00513          	li	a0,10
 380:	fea00fa3          	sb	a0,-1(zero) # ffffffff <_end+0xffffdfff>
 384:	c0001073          	unimp

00000388 <pass>:
 388:	0ff0000f          	fence
 38c:	04f00513          	li	a0,79
 390:	fea00fa3          	sb	a0,-1(zero) # ffffffff <_end+0xffffdfff>
 394:	06b00513          	li	a0,107
 398:	fea00fa3          	sb	a0,-1(zero) # ffffffff <_end+0xffffdfff>
 39c:	00a00513          	li	a0,10
 3a0:	fea00fa3          	sb	a0,-1(zero) # ffffffff <_end+0xffffdfff>
 3a4:	00100193          	li	gp,1
 3a8:	c0001073          	unimp
 3ac:	c0001073          	unimp
	...
