
sub.elf:     file format elf32-littleriscv


Disassembly of section .text.init:

00000000 <_start>:
   0:	0040006f          	j	4 <reset_vector>

00000004 <reset_vector>:
   4:	00000093          	li	ra,0
   8:	00000113          	li	sp,0
   c:	00000193          	li	gp,0
  10:	00000213          	li	tp,0
  14:	00000293          	li	t0,0
  18:	00000313          	li	t1,0
  1c:	00000393          	li	t2,0
  20:	00000413          	li	s0,0
  24:	00000493          	li	s1,0
  28:	00000513          	li	a0,0
  2c:	00000593          	li	a1,0
  30:	00000613          	li	a2,0
  34:	00000693          	li	a3,0
  38:	00000713          	li	a4,0
  3c:	00000793          	li	a5,0
  40:	00000813          	li	a6,0
  44:	00000893          	li	a7,0
  48:	00000913          	li	s2,0
  4c:	00000993          	li	s3,0
  50:	00000a13          	li	s4,0
  54:	00000a93          	li	s5,0
  58:	00000b13          	li	s6,0
  5c:	00000b93          	li	s7,0
  60:	00000c13          	li	s8,0
  64:	00000c93          	li	s9,0
  68:	00000d13          	li	s10,0
  6c:	00000d93          	li	s11,0
  70:	00000e13          	li	t3,0
  74:	00000e93          	li	t4,0
  78:	00000f13          	li	t5,0
  7c:	00000f93          	li	t6,0
  80:	00000193          	li	gp,0
  84:	00100513          	li	a0,1
  88:	01f51513          	sll	a0,a0,0x1f
  8c:	02054263          	bltz	a0,b0 <reset_vector+0xac>
  90:	0ff0000f          	fence
  94:	04f00513          	li	a0,79
  98:	fea00fa3          	sb	a0,-1(zero) # ffffffff <_end+0xffffdfff>
  9c:	06b00513          	li	a0,107
  a0:	fea00fa3          	sb	a0,-1(zero) # ffffffff <_end+0xffffdfff>
  a4:	00a00513          	li	a0,10
  a8:	fea00fa3          	sb	a0,-1(zero) # ffffffff <_end+0xffffdfff>
  ac:	00100193          	li	gp,1
  b0:	30005073          	csrw	mstatus,0
  b4:	00000297          	auipc	t0,0x0
  b8:	01428293          	add	t0,t0,20 # c8 <test_2>
  bc:	34129073          	csrw	mepc,t0
  c0:	f1402573          	csrr	a0,mhartid
  c4:	30200073          	mret

000000c8 <test_2>:
  c8:	00200193          	li	gp,2
  cc:	00000093          	li	ra,0
  d0:	00000113          	li	sp,0
  d4:	40208733          	sub	a4,ra,sp
  d8:	00000393          	li	t2,0
  dc:	4a771663          	bne	a4,t2,588 <fail>

000000e0 <test_3>:
  e0:	00300193          	li	gp,3
  e4:	00100093          	li	ra,1
  e8:	00100113          	li	sp,1
  ec:	40208733          	sub	a4,ra,sp
  f0:	00000393          	li	t2,0
  f4:	48771a63          	bne	a4,t2,588 <fail>

000000f8 <test_4>:
  f8:	00400193          	li	gp,4
  fc:	00300093          	li	ra,3
 100:	00700113          	li	sp,7
 104:	40208733          	sub	a4,ra,sp
 108:	ffc00393          	li	t2,-4
 10c:	46771e63          	bne	a4,t2,588 <fail>

00000110 <test_5>:
 110:	00500193          	li	gp,5
 114:	00000093          	li	ra,0
 118:	ffff8137          	lui	sp,0xffff8
 11c:	40208733          	sub	a4,ra,sp
 120:	000083b7          	lui	t2,0x8
 124:	46771263          	bne	a4,t2,588 <fail>

00000128 <test_6>:
 128:	00600193          	li	gp,6
 12c:	800000b7          	lui	ra,0x80000
 130:	00000113          	li	sp,0
 134:	40208733          	sub	a4,ra,sp
 138:	800003b7          	lui	t2,0x80000
 13c:	44771663          	bne	a4,t2,588 <fail>

00000140 <test_7>:
 140:	00700193          	li	gp,7
 144:	800000b7          	lui	ra,0x80000
 148:	ffff8137          	lui	sp,0xffff8
 14c:	40208733          	sub	a4,ra,sp
 150:	800083b7          	lui	t2,0x80008
 154:	42771a63          	bne	a4,t2,588 <fail>

00000158 <test_8>:
 158:	00800193          	li	gp,8
 15c:	00000093          	li	ra,0
 160:	00008137          	lui	sp,0x8
 164:	fff10113          	add	sp,sp,-1 # 7fff <_end+0x5fff>
 168:	40208733          	sub	a4,ra,sp
 16c:	ffff83b7          	lui	t2,0xffff8
 170:	00138393          	add	t2,t2,1 # ffff8001 <_end+0xffff6001>
 174:	40771a63          	bne	a4,t2,588 <fail>

00000178 <test_9>:
 178:	00900193          	li	gp,9
 17c:	800000b7          	lui	ra,0x80000
 180:	fff08093          	add	ra,ra,-1 # 7fffffff <_end+0x7fffdfff>
 184:	00000113          	li	sp,0
 188:	40208733          	sub	a4,ra,sp
 18c:	800003b7          	lui	t2,0x80000
 190:	fff38393          	add	t2,t2,-1 # 7fffffff <_end+0x7fffdfff>
 194:	3e771a63          	bne	a4,t2,588 <fail>

00000198 <test_10>:
 198:	00a00193          	li	gp,10
 19c:	800000b7          	lui	ra,0x80000
 1a0:	fff08093          	add	ra,ra,-1 # 7fffffff <_end+0x7fffdfff>
 1a4:	00008137          	lui	sp,0x8
 1a8:	fff10113          	add	sp,sp,-1 # 7fff <_end+0x5fff>
 1ac:	40208733          	sub	a4,ra,sp
 1b0:	7fff83b7          	lui	t2,0x7fff8
 1b4:	3c771a63          	bne	a4,t2,588 <fail>

000001b8 <test_11>:
 1b8:	00b00193          	li	gp,11
 1bc:	800000b7          	lui	ra,0x80000
 1c0:	00008137          	lui	sp,0x8
 1c4:	fff10113          	add	sp,sp,-1 # 7fff <_end+0x5fff>
 1c8:	40208733          	sub	a4,ra,sp
 1cc:	7fff83b7          	lui	t2,0x7fff8
 1d0:	00138393          	add	t2,t2,1 # 7fff8001 <_end+0x7fff6001>
 1d4:	3a771a63          	bne	a4,t2,588 <fail>

000001d8 <test_12>:
 1d8:	00c00193          	li	gp,12
 1dc:	800000b7          	lui	ra,0x80000
 1e0:	fff08093          	add	ra,ra,-1 # 7fffffff <_end+0x7fffdfff>
 1e4:	ffff8137          	lui	sp,0xffff8
 1e8:	40208733          	sub	a4,ra,sp
 1ec:	800083b7          	lui	t2,0x80008
 1f0:	fff38393          	add	t2,t2,-1 # 80007fff <_end+0x80005fff>
 1f4:	38771a63          	bne	a4,t2,588 <fail>

000001f8 <test_13>:
 1f8:	00d00193          	li	gp,13
 1fc:	00000093          	li	ra,0
 200:	fff00113          	li	sp,-1
 204:	40208733          	sub	a4,ra,sp
 208:	00100393          	li	t2,1
 20c:	36771e63          	bne	a4,t2,588 <fail>

00000210 <test_14>:
 210:	00e00193          	li	gp,14
 214:	fff00093          	li	ra,-1
 218:	00100113          	li	sp,1
 21c:	40208733          	sub	a4,ra,sp
 220:	ffe00393          	li	t2,-2
 224:	36771263          	bne	a4,t2,588 <fail>

00000228 <test_15>:
 228:	00f00193          	li	gp,15
 22c:	fff00093          	li	ra,-1
 230:	fff00113          	li	sp,-1
 234:	40208733          	sub	a4,ra,sp
 238:	00000393          	li	t2,0
 23c:	34771663          	bne	a4,t2,588 <fail>

00000240 <test_16>:
 240:	01000193          	li	gp,16
 244:	00d00093          	li	ra,13
 248:	00b00113          	li	sp,11
 24c:	402080b3          	sub	ra,ra,sp
 250:	00200393          	li	t2,2
 254:	32709a63          	bne	ra,t2,588 <fail>

00000258 <test_17>:
 258:	01100193          	li	gp,17
 25c:	00e00093          	li	ra,14
 260:	00b00113          	li	sp,11
 264:	40208133          	sub	sp,ra,sp
 268:	00300393          	li	t2,3
 26c:	30711e63          	bne	sp,t2,588 <fail>

00000270 <test_18>:
 270:	01200193          	li	gp,18
 274:	00d00093          	li	ra,13
 278:	401080b3          	sub	ra,ra,ra
 27c:	00000393          	li	t2,0
 280:	30709463          	bne	ra,t2,588 <fail>

00000284 <test_19>:
 284:	01300193          	li	gp,19
 288:	00000213          	li	tp,0
 28c:	00d00093          	li	ra,13
 290:	00b00113          	li	sp,11
 294:	40208733          	sub	a4,ra,sp
 298:	00070313          	mv	t1,a4
 29c:	00120213          	add	tp,tp,1 # 1 <_start+0x1>
 2a0:	00200293          	li	t0,2
 2a4:	fe5214e3          	bne	tp,t0,28c <test_19+0x8>
 2a8:	00200393          	li	t2,2
 2ac:	2c731e63          	bne	t1,t2,588 <fail>

000002b0 <test_20>:
 2b0:	01400193          	li	gp,20
 2b4:	00000213          	li	tp,0
 2b8:	00e00093          	li	ra,14
 2bc:	00b00113          	li	sp,11
 2c0:	40208733          	sub	a4,ra,sp
 2c4:	00000013          	nop
 2c8:	00070313          	mv	t1,a4
 2cc:	00120213          	add	tp,tp,1 # 1 <_start+0x1>
 2d0:	00200293          	li	t0,2
 2d4:	fe5212e3          	bne	tp,t0,2b8 <test_20+0x8>
 2d8:	00300393          	li	t2,3
 2dc:	2a731663          	bne	t1,t2,588 <fail>

000002e0 <test_21>:
 2e0:	01500193          	li	gp,21
 2e4:	00000213          	li	tp,0
 2e8:	00f00093          	li	ra,15
 2ec:	00b00113          	li	sp,11
 2f0:	40208733          	sub	a4,ra,sp
 2f4:	00000013          	nop
 2f8:	00000013          	nop
 2fc:	00070313          	mv	t1,a4
 300:	00120213          	add	tp,tp,1 # 1 <_start+0x1>
 304:	00200293          	li	t0,2
 308:	fe5210e3          	bne	tp,t0,2e8 <test_21+0x8>
 30c:	00400393          	li	t2,4
 310:	26731c63          	bne	t1,t2,588 <fail>

00000314 <test_22>:
 314:	01600193          	li	gp,22
 318:	00000213          	li	tp,0
 31c:	00d00093          	li	ra,13
 320:	00b00113          	li	sp,11
 324:	40208733          	sub	a4,ra,sp
 328:	00120213          	add	tp,tp,1 # 1 <_start+0x1>
 32c:	00200293          	li	t0,2
 330:	fe5216e3          	bne	tp,t0,31c <test_22+0x8>
 334:	00200393          	li	t2,2
 338:	24771863          	bne	a4,t2,588 <fail>

0000033c <test_23>:
 33c:	01700193          	li	gp,23
 340:	00000213          	li	tp,0
 344:	00e00093          	li	ra,14
 348:	00b00113          	li	sp,11
 34c:	00000013          	nop
 350:	40208733          	sub	a4,ra,sp
 354:	00120213          	add	tp,tp,1 # 1 <_start+0x1>
 358:	00200293          	li	t0,2
 35c:	fe5214e3          	bne	tp,t0,344 <test_23+0x8>
 360:	00300393          	li	t2,3
 364:	22771263          	bne	a4,t2,588 <fail>

00000368 <test_24>:
 368:	01800193          	li	gp,24
 36c:	00000213          	li	tp,0
 370:	00f00093          	li	ra,15
 374:	00b00113          	li	sp,11
 378:	00000013          	nop
 37c:	00000013          	nop
 380:	40208733          	sub	a4,ra,sp
 384:	00120213          	add	tp,tp,1 # 1 <_start+0x1>
 388:	00200293          	li	t0,2
 38c:	fe5212e3          	bne	tp,t0,370 <test_24+0x8>
 390:	00400393          	li	t2,4
 394:	1e771a63          	bne	a4,t2,588 <fail>

00000398 <test_25>:
 398:	01900193          	li	gp,25
 39c:	00000213          	li	tp,0
 3a0:	00d00093          	li	ra,13
 3a4:	00000013          	nop
 3a8:	00b00113          	li	sp,11
 3ac:	40208733          	sub	a4,ra,sp
 3b0:	00120213          	add	tp,tp,1 # 1 <_start+0x1>
 3b4:	00200293          	li	t0,2
 3b8:	fe5214e3          	bne	tp,t0,3a0 <test_25+0x8>
 3bc:	00200393          	li	t2,2
 3c0:	1c771463          	bne	a4,t2,588 <fail>

000003c4 <test_26>:
 3c4:	01a00193          	li	gp,26
 3c8:	00000213          	li	tp,0
 3cc:	00e00093          	li	ra,14
 3d0:	00000013          	nop
 3d4:	00b00113          	li	sp,11
 3d8:	00000013          	nop
 3dc:	40208733          	sub	a4,ra,sp
 3e0:	00120213          	add	tp,tp,1 # 1 <_start+0x1>
 3e4:	00200293          	li	t0,2
 3e8:	fe5212e3          	bne	tp,t0,3cc <test_26+0x8>
 3ec:	00300393          	li	t2,3
 3f0:	18771c63          	bne	a4,t2,588 <fail>

000003f4 <test_27>:
 3f4:	01b00193          	li	gp,27
 3f8:	00000213          	li	tp,0
 3fc:	00f00093          	li	ra,15
 400:	00000013          	nop
 404:	00000013          	nop
 408:	00b00113          	li	sp,11
 40c:	40208733          	sub	a4,ra,sp
 410:	00120213          	add	tp,tp,1 # 1 <_start+0x1>
 414:	00200293          	li	t0,2
 418:	fe5212e3          	bne	tp,t0,3fc <test_27+0x8>
 41c:	00400393          	li	t2,4
 420:	16771463          	bne	a4,t2,588 <fail>

00000424 <test_28>:
 424:	01c00193          	li	gp,28
 428:	00000213          	li	tp,0
 42c:	00b00113          	li	sp,11
 430:	00d00093          	li	ra,13
 434:	40208733          	sub	a4,ra,sp
 438:	00120213          	add	tp,tp,1 # 1 <_start+0x1>
 43c:	00200293          	li	t0,2
 440:	fe5216e3          	bne	tp,t0,42c <test_28+0x8>
 444:	00200393          	li	t2,2
 448:	14771063          	bne	a4,t2,588 <fail>

0000044c <test_29>:
 44c:	01d00193          	li	gp,29
 450:	00000213          	li	tp,0
 454:	00b00113          	li	sp,11
 458:	00e00093          	li	ra,14
 45c:	00000013          	nop
 460:	40208733          	sub	a4,ra,sp
 464:	00120213          	add	tp,tp,1 # 1 <_start+0x1>
 468:	00200293          	li	t0,2
 46c:	fe5214e3          	bne	tp,t0,454 <test_29+0x8>
 470:	00300393          	li	t2,3
 474:	10771a63          	bne	a4,t2,588 <fail>

00000478 <test_30>:
 478:	01e00193          	li	gp,30
 47c:	00000213          	li	tp,0
 480:	00b00113          	li	sp,11
 484:	00f00093          	li	ra,15
 488:	00000013          	nop
 48c:	00000013          	nop
 490:	40208733          	sub	a4,ra,sp
 494:	00120213          	add	tp,tp,1 # 1 <_start+0x1>
 498:	00200293          	li	t0,2
 49c:	fe5212e3          	bne	tp,t0,480 <test_30+0x8>
 4a0:	00400393          	li	t2,4
 4a4:	0e771263          	bne	a4,t2,588 <fail>

000004a8 <test_31>:
 4a8:	01f00193          	li	gp,31
 4ac:	00000213          	li	tp,0
 4b0:	00b00113          	li	sp,11
 4b4:	00000013          	nop
 4b8:	00d00093          	li	ra,13
 4bc:	40208733          	sub	a4,ra,sp
 4c0:	00120213          	add	tp,tp,1 # 1 <_start+0x1>
 4c4:	00200293          	li	t0,2
 4c8:	fe5214e3          	bne	tp,t0,4b0 <test_31+0x8>
 4cc:	00200393          	li	t2,2
 4d0:	0a771c63          	bne	a4,t2,588 <fail>

000004d4 <test_32>:
 4d4:	02000193          	li	gp,32
 4d8:	00000213          	li	tp,0
 4dc:	00b00113          	li	sp,11
 4e0:	00000013          	nop
 4e4:	00e00093          	li	ra,14
 4e8:	00000013          	nop
 4ec:	40208733          	sub	a4,ra,sp
 4f0:	00120213          	add	tp,tp,1 # 1 <_start+0x1>
 4f4:	00200293          	li	t0,2
 4f8:	fe5212e3          	bne	tp,t0,4dc <test_32+0x8>
 4fc:	00300393          	li	t2,3
 500:	08771463          	bne	a4,t2,588 <fail>

00000504 <test_33>:
 504:	02100193          	li	gp,33
 508:	00000213          	li	tp,0
 50c:	00b00113          	li	sp,11
 510:	00000013          	nop
 514:	00000013          	nop
 518:	00f00093          	li	ra,15
 51c:	40208733          	sub	a4,ra,sp
 520:	00120213          	add	tp,tp,1 # 1 <_start+0x1>
 524:	00200293          	li	t0,2
 528:	fe5212e3          	bne	tp,t0,50c <test_33+0x8>
 52c:	00400393          	li	t2,4
 530:	04771c63          	bne	a4,t2,588 <fail>

00000534 <test_34>:
 534:	02200193          	li	gp,34
 538:	ff100093          	li	ra,-15
 53c:	40100133          	neg	sp,ra
 540:	00f00393          	li	t2,15
 544:	04711263          	bne	sp,t2,588 <fail>

00000548 <test_35>:
 548:	02300193          	li	gp,35
 54c:	02000093          	li	ra,32
 550:	40008133          	sub	sp,ra,zero
 554:	02000393          	li	t2,32
 558:	02711863          	bne	sp,t2,588 <fail>

0000055c <test_36>:
 55c:	02400193          	li	gp,36
 560:	400000b3          	neg	ra,zero
 564:	00000393          	li	t2,0
 568:	02709063          	bne	ra,t2,588 <fail>

0000056c <test_37>:
 56c:	02500193          	li	gp,37
 570:	01000093          	li	ra,16
 574:	01e00113          	li	sp,30
 578:	40208033          	sub	zero,ra,sp
 57c:	00000393          	li	t2,0
 580:	00701463          	bne	zero,t2,588 <fail>
 584:	02301863          	bne	zero,gp,5b4 <pass>

00000588 <fail>:
 588:	0ff0000f          	fence
 58c:	04e00513          	li	a0,78
 590:	fea00fa3          	sb	a0,-1(zero) # ffffffff <_end+0xffffdfff>
 594:	06f00513          	li	a0,111
 598:	fea00fa3          	sb	a0,-1(zero) # ffffffff <_end+0xffffdfff>
 59c:	00a00513          	li	a0,10
 5a0:	fea00fa3          	sb	a0,-1(zero) # ffffffff <_end+0xffffdfff>
 5a4:	00018063          	beqz	gp,5a4 <fail+0x1c>
 5a8:	00119193          	sll	gp,gp,0x1
 5ac:	0011e193          	or	gp,gp,1
 5b0:	c0001073          	unimp

000005b4 <pass>:
 5b4:	0ff0000f          	fence
 5b8:	04f00513          	li	a0,79
 5bc:	fea00fa3          	sb	a0,-1(zero) # ffffffff <_end+0xffffdfff>
 5c0:	06b00513          	li	a0,107
 5c4:	fea00fa3          	sb	a0,-1(zero) # ffffffff <_end+0xffffdfff>
 5c8:	00a00513          	li	a0,10
 5cc:	fea00fa3          	sb	a0,-1(zero) # ffffffff <_end+0xffffdfff>
 5d0:	00100193          	li	gp,1
 5d4:	c0001073          	unimp
 5d8:	c0001073          	unimp
	...
