
sw.elf:     file format elf32-littleriscv


Disassembly of section .text.init:

00000000 <_start>:
   0:	0040006f          	j	4 <reset_vector>

00000004 <reset_vector>:
   4:	00000093          	li	ra,0
   8:	00000113          	li	sp,0
   c:	00000193          	li	gp,0
  10:	00000213          	li	tp,0
  14:	00000293          	li	t0,0
  18:	00000313          	li	t1,0
  1c:	00000393          	li	t2,0
  20:	00000413          	li	s0,0
  24:	00000493          	li	s1,0
  28:	00000513          	li	a0,0
  2c:	00000593          	li	a1,0
  30:	00000613          	li	a2,0
  34:	00000693          	li	a3,0
  38:	00000713          	li	a4,0
  3c:	00000793          	li	a5,0
  40:	00000813          	li	a6,0
  44:	00000893          	li	a7,0
  48:	00000913          	li	s2,0
  4c:	00000993          	li	s3,0
  50:	00000a13          	li	s4,0
  54:	00000a93          	li	s5,0
  58:	00000b13          	li	s6,0
  5c:	00000b93          	li	s7,0
  60:	00000c13          	li	s8,0
  64:	00000c93          	li	s9,0
  68:	00000d13          	li	s10,0
  6c:	00000d93          	li	s11,0
  70:	00000e13          	li	t3,0
  74:	00000e93          	li	t4,0
  78:	00000f13          	li	t5,0
  7c:	00000f93          	li	t6,0
  80:	00000193          	li	gp,0
  84:	00100513          	li	a0,1
  88:	01f51513          	sll	a0,a0,0x1f
  8c:	02054263          	bltz	a0,b0 <reset_vector+0xac>
  90:	0ff0000f          	fence
  94:	04f00513          	li	a0,79
  98:	fea00fa3          	sb	a0,-1(zero) # ffffffff <_end+0xffffdfcf>
  9c:	06b00513          	li	a0,107
  a0:	fea00fa3          	sb	a0,-1(zero) # ffffffff <_end+0xffffdfcf>
  a4:	00a00513          	li	a0,10
  a8:	fea00fa3          	sb	a0,-1(zero) # ffffffff <_end+0xffffdfcf>
  ac:	00100193          	li	gp,1
  b0:	30005073          	csrw	mstatus,0
  b4:	00000297          	auipc	t0,0x0
  b8:	01428293          	add	t0,t0,20 # c8 <test_2>
  bc:	34129073          	csrw	mepc,t0
  c0:	f1402573          	csrr	a0,mhartid
  c4:	30200073          	mret

000000c8 <test_2>:
  c8:	00200193          	li	gp,2
  cc:	00002097          	auipc	ra,0x2
  d0:	f3408093          	add	ra,ra,-204 # 2000 <begin_signature>
  d4:	00aa0137          	lui	sp,0xaa0
  d8:	0aa10113          	add	sp,sp,170 # aa00aa <_end+0xa9e07a>
  dc:	00000797          	auipc	a5,0x0
  e0:	01478793          	add	a5,a5,20 # f0 <test_2+0x28>
  e4:	0020a023          	sw	sp,0(ra)
  e8:	0000a703          	lw	a4,0(ra)
  ec:	0080006f          	j	f4 <test_2+0x2c>
  f0:	00010713          	mv	a4,sp
  f4:	00aa03b7          	lui	t2,0xaa0
  f8:	0aa38393          	add	t2,t2,170 # aa00aa <_end+0xa9e07a>
  fc:	4c771863          	bne	a4,t2,5cc <fail>

00000100 <test_3>:
 100:	00300193          	li	gp,3
 104:	00002097          	auipc	ra,0x2
 108:	efc08093          	add	ra,ra,-260 # 2000 <begin_signature>
 10c:	aa00b137          	lui	sp,0xaa00b
 110:	a0010113          	add	sp,sp,-1536 # aa00aa00 <_end+0xaa0089d0>
 114:	00000797          	auipc	a5,0x0
 118:	01478793          	add	a5,a5,20 # 128 <test_3+0x28>
 11c:	0020a223          	sw	sp,4(ra)
 120:	0040a703          	lw	a4,4(ra)
 124:	0080006f          	j	12c <test_3+0x2c>
 128:	00010713          	mv	a4,sp
 12c:	aa00b3b7          	lui	t2,0xaa00b
 130:	a0038393          	add	t2,t2,-1536 # aa00aa00 <_end+0xaa0089d0>
 134:	48771c63          	bne	a4,t2,5cc <fail>

00000138 <test_4>:
 138:	00400193          	li	gp,4
 13c:	00002097          	auipc	ra,0x2
 140:	ec408093          	add	ra,ra,-316 # 2000 <begin_signature>
 144:	0aa01137          	lui	sp,0xaa01
 148:	aa010113          	add	sp,sp,-1376 # aa00aa0 <_end+0xa9fea70>
 14c:	00000797          	auipc	a5,0x0
 150:	01478793          	add	a5,a5,20 # 160 <test_4+0x28>
 154:	0020a423          	sw	sp,8(ra)
 158:	0080a703          	lw	a4,8(ra)
 15c:	0080006f          	j	164 <test_4+0x2c>
 160:	00010713          	mv	a4,sp
 164:	0aa013b7          	lui	t2,0xaa01
 168:	aa038393          	add	t2,t2,-1376 # aa00aa0 <_end+0xa9fea70>
 16c:	46771063          	bne	a4,t2,5cc <fail>

00000170 <test_5>:
 170:	00500193          	li	gp,5
 174:	00002097          	auipc	ra,0x2
 178:	e8c08093          	add	ra,ra,-372 # 2000 <begin_signature>
 17c:	a00aa137          	lui	sp,0xa00aa
 180:	00a10113          	add	sp,sp,10 # a00aa00a <_end+0xa00a7fda>
 184:	00000797          	auipc	a5,0x0
 188:	01478793          	add	a5,a5,20 # 198 <test_5+0x28>
 18c:	0020a623          	sw	sp,12(ra)
 190:	00c0a703          	lw	a4,12(ra)
 194:	0080006f          	j	19c <test_5+0x2c>
 198:	00010713          	mv	a4,sp
 19c:	a00aa3b7          	lui	t2,0xa00aa
 1a0:	00a38393          	add	t2,t2,10 # a00aa00a <_end+0xa00a7fda>
 1a4:	42771463          	bne	a4,t2,5cc <fail>

000001a8 <test_6>:
 1a8:	00600193          	li	gp,6
 1ac:	00002097          	auipc	ra,0x2
 1b0:	e7008093          	add	ra,ra,-400 # 201c <tdat8>
 1b4:	00aa0137          	lui	sp,0xaa0
 1b8:	0aa10113          	add	sp,sp,170 # aa00aa <_end+0xa9e07a>
 1bc:	00000797          	auipc	a5,0x0
 1c0:	01478793          	add	a5,a5,20 # 1d0 <test_6+0x28>
 1c4:	fe20aa23          	sw	sp,-12(ra)
 1c8:	ff40a703          	lw	a4,-12(ra)
 1cc:	0080006f          	j	1d4 <test_6+0x2c>
 1d0:	00010713          	mv	a4,sp
 1d4:	00aa03b7          	lui	t2,0xaa0
 1d8:	0aa38393          	add	t2,t2,170 # aa00aa <_end+0xa9e07a>
 1dc:	3e771863          	bne	a4,t2,5cc <fail>

000001e0 <test_7>:
 1e0:	00700193          	li	gp,7
 1e4:	00002097          	auipc	ra,0x2
 1e8:	e3808093          	add	ra,ra,-456 # 201c <tdat8>
 1ec:	aa00b137          	lui	sp,0xaa00b
 1f0:	a0010113          	add	sp,sp,-1536 # aa00aa00 <_end+0xaa0089d0>
 1f4:	00000797          	auipc	a5,0x0
 1f8:	01478793          	add	a5,a5,20 # 208 <test_7+0x28>
 1fc:	fe20ac23          	sw	sp,-8(ra)
 200:	ff80a703          	lw	a4,-8(ra)
 204:	0080006f          	j	20c <test_7+0x2c>
 208:	00010713          	mv	a4,sp
 20c:	aa00b3b7          	lui	t2,0xaa00b
 210:	a0038393          	add	t2,t2,-1536 # aa00aa00 <_end+0xaa0089d0>
 214:	3a771c63          	bne	a4,t2,5cc <fail>

00000218 <test_8>:
 218:	00800193          	li	gp,8
 21c:	00002097          	auipc	ra,0x2
 220:	e0008093          	add	ra,ra,-512 # 201c <tdat8>
 224:	0aa01137          	lui	sp,0xaa01
 228:	aa010113          	add	sp,sp,-1376 # aa00aa0 <_end+0xa9fea70>
 22c:	00000797          	auipc	a5,0x0
 230:	01478793          	add	a5,a5,20 # 240 <test_8+0x28>
 234:	fe20ae23          	sw	sp,-4(ra)
 238:	ffc0a703          	lw	a4,-4(ra)
 23c:	0080006f          	j	244 <test_8+0x2c>
 240:	00010713          	mv	a4,sp
 244:	0aa013b7          	lui	t2,0xaa01
 248:	aa038393          	add	t2,t2,-1376 # aa00aa0 <_end+0xa9fea70>
 24c:	38771063          	bne	a4,t2,5cc <fail>

00000250 <test_9>:
 250:	00900193          	li	gp,9
 254:	00002097          	auipc	ra,0x2
 258:	dc808093          	add	ra,ra,-568 # 201c <tdat8>
 25c:	a00aa137          	lui	sp,0xa00aa
 260:	00a10113          	add	sp,sp,10 # a00aa00a <_end+0xa00a7fda>
 264:	00000797          	auipc	a5,0x0
 268:	01478793          	add	a5,a5,20 # 278 <test_9+0x28>
 26c:	0020a023          	sw	sp,0(ra)
 270:	0000a703          	lw	a4,0(ra)
 274:	0080006f          	j	27c <test_9+0x2c>
 278:	00010713          	mv	a4,sp
 27c:	a00aa3b7          	lui	t2,0xa00aa
 280:	00a38393          	add	t2,t2,10 # a00aa00a <_end+0xa00a7fda>
 284:	34771463          	bne	a4,t2,5cc <fail>

00000288 <test_10>:
 288:	00a00193          	li	gp,10
 28c:	00002097          	auipc	ra,0x2
 290:	d9408093          	add	ra,ra,-620 # 2020 <tdat9>
 294:	12345137          	lui	sp,0x12345
 298:	67810113          	add	sp,sp,1656 # 12345678 <_end+0x12343648>
 29c:	fe008213          	add	tp,ra,-32
 2a0:	02222023          	sw	sp,32(tp) # 20 <reset_vector+0x1c>
 2a4:	0000a283          	lw	t0,0(ra)
 2a8:	123453b7          	lui	t2,0x12345
 2ac:	67838393          	add	t2,t2,1656 # 12345678 <_end+0x12343648>
 2b0:	30729e63          	bne	t0,t2,5cc <fail>

000002b4 <test_11>:
 2b4:	00b00193          	li	gp,11
 2b8:	00002097          	auipc	ra,0x2
 2bc:	d6808093          	add	ra,ra,-664 # 2020 <tdat9>
 2c0:	58213137          	lui	sp,0x58213
 2c4:	09810113          	add	sp,sp,152 # 58213098 <_end+0x58211068>
 2c8:	ffd08093          	add	ra,ra,-3
 2cc:	0020a3a3          	sw	sp,7(ra)
 2d0:	00002217          	auipc	tp,0x2
 2d4:	d5420213          	add	tp,tp,-684 # 2024 <tdat10>
 2d8:	00022283          	lw	t0,0(tp) # 0 <_start>
 2dc:	582133b7          	lui	t2,0x58213
 2e0:	09838393          	add	t2,t2,152 # 58213098 <_end+0x58211068>
 2e4:	2e729463          	bne	t0,t2,5cc <fail>

000002e8 <test_12>:
 2e8:	00c00193          	li	gp,12
 2ec:	00000213          	li	tp,0
 2f0:	aabbd0b7          	lui	ra,0xaabbd
 2f4:	cdd08093          	add	ra,ra,-803 # aabbccdd <_end+0xaabbacad>
 2f8:	00002117          	auipc	sp,0x2
 2fc:	d0810113          	add	sp,sp,-760 # 2000 <begin_signature>
 300:	00112023          	sw	ra,0(sp)
 304:	00012703          	lw	a4,0(sp)
 308:	aabbd3b7          	lui	t2,0xaabbd
 30c:	cdd38393          	add	t2,t2,-803 # aabbccdd <_end+0xaabbacad>
 310:	2a771e63          	bne	a4,t2,5cc <fail>
 314:	00120213          	add	tp,tp,1 # 1 <_start+0x1>
 318:	00200293          	li	t0,2
 31c:	fc521ae3          	bne	tp,t0,2f0 <test_12+0x8>

00000320 <test_13>:
 320:	00d00193          	li	gp,13
 324:	00000213          	li	tp,0
 328:	daabc0b7          	lui	ra,0xdaabc
 32c:	ccd08093          	add	ra,ra,-819 # daabbccd <_end+0xdaab9c9d>
 330:	00002117          	auipc	sp,0x2
 334:	cd010113          	add	sp,sp,-816 # 2000 <begin_signature>
 338:	00000013          	nop
 33c:	00112223          	sw	ra,4(sp)
 340:	00412703          	lw	a4,4(sp)
 344:	daabc3b7          	lui	t2,0xdaabc
 348:	ccd38393          	add	t2,t2,-819 # daabbccd <_end+0xdaab9c9d>
 34c:	28771063          	bne	a4,t2,5cc <fail>
 350:	00120213          	add	tp,tp,1 # 1 <_start+0x1>
 354:	00200293          	li	t0,2
 358:	fc5218e3          	bne	tp,t0,328 <test_13+0x8>

0000035c <test_14>:
 35c:	00e00193          	li	gp,14
 360:	00000213          	li	tp,0
 364:	ddaac0b7          	lui	ra,0xddaac
 368:	bcc08093          	add	ra,ra,-1076 # ddaabbcc <_end+0xddaa9b9c>
 36c:	00002117          	auipc	sp,0x2
 370:	c9410113          	add	sp,sp,-876 # 2000 <begin_signature>
 374:	00000013          	nop
 378:	00000013          	nop
 37c:	00112423          	sw	ra,8(sp)
 380:	00812703          	lw	a4,8(sp)
 384:	ddaac3b7          	lui	t2,0xddaac
 388:	bcc38393          	add	t2,t2,-1076 # ddaabbcc <_end+0xddaa9b9c>
 38c:	24771063          	bne	a4,t2,5cc <fail>
 390:	00120213          	add	tp,tp,1 # 1 <_start+0x1>
 394:	00200293          	li	t0,2
 398:	fc5216e3          	bne	tp,t0,364 <test_14+0x8>

0000039c <test_15>:
 39c:	00f00193          	li	gp,15
 3a0:	00000213          	li	tp,0
 3a4:	cddab0b7          	lui	ra,0xcddab
 3a8:	bbc08093          	add	ra,ra,-1092 # cddaabbc <_end+0xcdda8b8c>
 3ac:	00000013          	nop
 3b0:	00002117          	auipc	sp,0x2
 3b4:	c5010113          	add	sp,sp,-944 # 2000 <begin_signature>
 3b8:	00112623          	sw	ra,12(sp)
 3bc:	00c12703          	lw	a4,12(sp)
 3c0:	cddab3b7          	lui	t2,0xcddab
 3c4:	bbc38393          	add	t2,t2,-1092 # cddaabbc <_end+0xcdda8b8c>
 3c8:	20771263          	bne	a4,t2,5cc <fail>
 3cc:	00120213          	add	tp,tp,1 # 1 <_start+0x1>
 3d0:	00200293          	li	t0,2
 3d4:	fc5218e3          	bne	tp,t0,3a4 <test_15+0x8>

000003d8 <test_16>:
 3d8:	01000193          	li	gp,16
 3dc:	00000213          	li	tp,0
 3e0:	ccddb0b7          	lui	ra,0xccddb
 3e4:	abb08093          	add	ra,ra,-1349 # ccddaabb <_end+0xccdd8a8b>
 3e8:	00000013          	nop
 3ec:	00002117          	auipc	sp,0x2
 3f0:	c1410113          	add	sp,sp,-1004 # 2000 <begin_signature>
 3f4:	00000013          	nop
 3f8:	00112823          	sw	ra,16(sp)
 3fc:	01012703          	lw	a4,16(sp)
 400:	ccddb3b7          	lui	t2,0xccddb
 404:	abb38393          	add	t2,t2,-1349 # ccddaabb <_end+0xccdd8a8b>
 408:	1c771263          	bne	a4,t2,5cc <fail>
 40c:	00120213          	add	tp,tp,1 # 1 <_start+0x1>
 410:	00200293          	li	t0,2
 414:	fc5216e3          	bne	tp,t0,3e0 <test_16+0x8>

00000418 <test_17>:
 418:	01100193          	li	gp,17
 41c:	00000213          	li	tp,0
 420:	bccde0b7          	lui	ra,0xbccde
 424:	aab08093          	add	ra,ra,-1365 # bccddaab <_end+0xbccdba7b>
 428:	00000013          	nop
 42c:	00000013          	nop
 430:	00002117          	auipc	sp,0x2
 434:	bd010113          	add	sp,sp,-1072 # 2000 <begin_signature>
 438:	00112a23          	sw	ra,20(sp)
 43c:	01412703          	lw	a4,20(sp)
 440:	bccde3b7          	lui	t2,0xbccde
 444:	aab38393          	add	t2,t2,-1365 # bccddaab <_end+0xbccdba7b>
 448:	18771263          	bne	a4,t2,5cc <fail>
 44c:	00120213          	add	tp,tp,1 # 1 <_start+0x1>
 450:	00200293          	li	t0,2
 454:	fc5216e3          	bne	tp,t0,420 <test_17+0x8>

00000458 <test_18>:
 458:	01200193          	li	gp,18
 45c:	00000213          	li	tp,0
 460:	00002117          	auipc	sp,0x2
 464:	ba010113          	add	sp,sp,-1120 # 2000 <begin_signature>
 468:	001120b7          	lui	ra,0x112
 46c:	23308093          	add	ra,ra,563 # 112233 <_end+0x110203>
 470:	00112023          	sw	ra,0(sp)
 474:	00012703          	lw	a4,0(sp)
 478:	001123b7          	lui	t2,0x112
 47c:	23338393          	add	t2,t2,563 # 112233 <_end+0x110203>
 480:	14771663          	bne	a4,t2,5cc <fail>
 484:	00120213          	add	tp,tp,1 # 1 <_start+0x1>
 488:	00200293          	li	t0,2
 48c:	fc521ae3          	bne	tp,t0,460 <test_18+0x8>

00000490 <test_19>:
 490:	01300193          	li	gp,19
 494:	00000213          	li	tp,0
 498:	00002117          	auipc	sp,0x2
 49c:	b6810113          	add	sp,sp,-1176 # 2000 <begin_signature>
 4a0:	300110b7          	lui	ra,0x30011
 4a4:	22308093          	add	ra,ra,547 # 30011223 <_end+0x3000f1f3>
 4a8:	00000013          	nop
 4ac:	00112223          	sw	ra,4(sp)
 4b0:	00412703          	lw	a4,4(sp)
 4b4:	300113b7          	lui	t2,0x30011
 4b8:	22338393          	add	t2,t2,547 # 30011223 <_end+0x3000f1f3>
 4bc:	10771863          	bne	a4,t2,5cc <fail>
 4c0:	00120213          	add	tp,tp,1 # 1 <_start+0x1>
 4c4:	00200293          	li	t0,2
 4c8:	fc5218e3          	bne	tp,t0,498 <test_19+0x8>

000004cc <test_20>:
 4cc:	01400193          	li	gp,20
 4d0:	00000213          	li	tp,0
 4d4:	00002117          	auipc	sp,0x2
 4d8:	b2c10113          	add	sp,sp,-1236 # 2000 <begin_signature>
 4dc:	330010b7          	lui	ra,0x33001
 4e0:	12208093          	add	ra,ra,290 # 33001122 <_end+0x32fff0f2>
 4e4:	00000013          	nop
 4e8:	00000013          	nop
 4ec:	00112423          	sw	ra,8(sp)
 4f0:	00812703          	lw	a4,8(sp)
 4f4:	330013b7          	lui	t2,0x33001
 4f8:	12238393          	add	t2,t2,290 # 33001122 <_end+0x32fff0f2>
 4fc:	0c771863          	bne	a4,t2,5cc <fail>
 500:	00120213          	add	tp,tp,1 # 1 <_start+0x1>
 504:	00200293          	li	t0,2
 508:	fc5216e3          	bne	tp,t0,4d4 <test_20+0x8>

0000050c <test_21>:
 50c:	01500193          	li	gp,21
 510:	00000213          	li	tp,0
 514:	00002117          	auipc	sp,0x2
 518:	aec10113          	add	sp,sp,-1300 # 2000 <begin_signature>
 51c:	00000013          	nop
 520:	233000b7          	lui	ra,0x23300
 524:	11208093          	add	ra,ra,274 # 23300112 <_end+0x232fe0e2>
 528:	00112623          	sw	ra,12(sp)
 52c:	00c12703          	lw	a4,12(sp)
 530:	233003b7          	lui	t2,0x23300
 534:	11238393          	add	t2,t2,274 # 23300112 <_end+0x232fe0e2>
 538:	08771a63          	bne	a4,t2,5cc <fail>
 53c:	00120213          	add	tp,tp,1 # 1 <_start+0x1>
 540:	00200293          	li	t0,2
 544:	fc5218e3          	bne	tp,t0,514 <test_21+0x8>

00000548 <test_22>:
 548:	01600193          	li	gp,22
 54c:	00000213          	li	tp,0
 550:	00002117          	auipc	sp,0x2
 554:	ab010113          	add	sp,sp,-1360 # 2000 <begin_signature>
 558:	00000013          	nop
 55c:	223300b7          	lui	ra,0x22330
 560:	01108093          	add	ra,ra,17 # 22330011 <_end+0x2232dfe1>
 564:	00000013          	nop
 568:	00112823          	sw	ra,16(sp)
 56c:	01012703          	lw	a4,16(sp)
 570:	223303b7          	lui	t2,0x22330
 574:	01138393          	add	t2,t2,17 # 22330011 <_end+0x2232dfe1>
 578:	04771a63          	bne	a4,t2,5cc <fail>
 57c:	00120213          	add	tp,tp,1 # 1 <_start+0x1>
 580:	00200293          	li	t0,2
 584:	fc5216e3          	bne	tp,t0,550 <test_22+0x8>

00000588 <test_23>:
 588:	01700193          	li	gp,23
 58c:	00000213          	li	tp,0
 590:	00002117          	auipc	sp,0x2
 594:	a7010113          	add	sp,sp,-1424 # 2000 <begin_signature>
 598:	00000013          	nop
 59c:	00000013          	nop
 5a0:	122330b7          	lui	ra,0x12233
 5a4:	00108093          	add	ra,ra,1 # 12233001 <_end+0x12230fd1>
 5a8:	00112a23          	sw	ra,20(sp)
 5ac:	01412703          	lw	a4,20(sp)
 5b0:	122333b7          	lui	t2,0x12233
 5b4:	00138393          	add	t2,t2,1 # 12233001 <_end+0x12230fd1>
 5b8:	00771a63          	bne	a4,t2,5cc <fail>
 5bc:	00120213          	add	tp,tp,1 # 1 <_start+0x1>
 5c0:	00200293          	li	t0,2
 5c4:	fc5216e3          	bne	tp,t0,590 <test_23+0x8>
 5c8:	02301863          	bne	zero,gp,5f8 <pass>

000005cc <fail>:
 5cc:	0ff0000f          	fence
 5d0:	04e00513          	li	a0,78
 5d4:	fea00fa3          	sb	a0,-1(zero) # ffffffff <_end+0xffffdfcf>
 5d8:	06f00513          	li	a0,111
 5dc:	fea00fa3          	sb	a0,-1(zero) # ffffffff <_end+0xffffdfcf>
 5e0:	00a00513          	li	a0,10
 5e4:	fea00fa3          	sb	a0,-1(zero) # ffffffff <_end+0xffffdfcf>
 5e8:	00018063          	beqz	gp,5e8 <fail+0x1c>
 5ec:	00119193          	sll	gp,gp,0x1
 5f0:	0011e193          	or	gp,gp,1
 5f4:	c0001073          	unimp

000005f8 <pass>:
 5f8:	0ff0000f          	fence
 5fc:	04f00513          	li	a0,79
 600:	fea00fa3          	sb	a0,-1(zero) # ffffffff <_end+0xffffdfcf>
 604:	06b00513          	li	a0,107
 608:	fea00fa3          	sb	a0,-1(zero) # ffffffff <_end+0xffffdfcf>
 60c:	00a00513          	li	a0,10
 610:	fea00fa3          	sb	a0,-1(zero) # ffffffff <_end+0xffffdfcf>
 614:	00100193          	li	gp,1
 618:	c0001073          	unimp
 61c:	c0001073          	unimp
	...
