
xor.elf:     file format elf32-littleriscv


Disassembly of section .text.init:

00000000 <_start>:
   0:	0500006f          	j	50 <reset_vector>

00000004 <trap_vector>:
   4:	34202f73          	csrr	t5,mcause
   8:	00800f93          	li	t6,8
   c:	03ff0863          	beq	t5,t6,3c <write_tohost>
  10:	00900f93          	li	t6,9
  14:	03ff0463          	beq	t5,t6,3c <write_tohost>
  18:	00b00f93          	li	t6,11
  1c:	03ff0063          	beq	t5,t6,3c <write_tohost>
  20:	00000f13          	li	t5,0
  24:	000f0463          	beqz	t5,2c <trap_vector+0x28>
  28:	000f0067          	jr	t5
  2c:	34202f73          	csrr	t5,mcause
  30:	000f5463          	bgez	t5,38 <handle_exception>
  34:	0040006f          	j	38 <handle_exception>

00000038 <handle_exception>:
  38:	5391e193          	or	gp,gp,1337

0000003c <write_tohost>:
  3c:	00001f17          	auipc	t5,0x1
  40:	fc3f2223          	sw	gp,-60(t5) # 1000 <tohost>
  44:	00001f17          	auipc	t5,0x1
  48:	fc0f2023          	sw	zero,-64(t5) # 1004 <tohost+0x4>
  4c:	ff1ff06f          	j	3c <write_tohost>

00000050 <reset_vector>:
  50:	00000093          	li	ra,0
  54:	00000113          	li	sp,0
  58:	00000193          	li	gp,0
  5c:	00000213          	li	tp,0
  60:	00000293          	li	t0,0
  64:	00000313          	li	t1,0
  68:	00000393          	li	t2,0
  6c:	00000413          	li	s0,0
  70:	00000493          	li	s1,0
  74:	00000513          	li	a0,0
  78:	00000593          	li	a1,0
  7c:	00000613          	li	a2,0
  80:	00000693          	li	a3,0
  84:	00000713          	li	a4,0
  88:	00000793          	li	a5,0
  8c:	00000813          	li	a6,0
  90:	00000893          	li	a7,0
  94:	00000913          	li	s2,0
  98:	00000993          	li	s3,0
  9c:	00000a13          	li	s4,0
  a0:	00000a93          	li	s5,0
  a4:	00000b13          	li	s6,0
  a8:	00000b93          	li	s7,0
  ac:	00000c13          	li	s8,0
  b0:	00000c93          	li	s9,0
  b4:	00000d13          	li	s10,0
  b8:	00000d93          	li	s11,0
  bc:	00000e13          	li	t3,0
  c0:	00000e93          	li	t4,0
  c4:	00000f13          	li	t5,0
  c8:	00000f93          	li	t6,0
  cc:	f1402573          	csrr	a0,mhartid
  d0:	00051063          	bnez	a0,d0 <reset_vector+0x80>
  d4:	00000297          	auipc	t0,0x0
  d8:	01028293          	add	t0,t0,16 # e4 <reset_vector+0x94>
  dc:	30529073          	csrw	mtvec,t0
  e0:	74445073          	csrw	0x744,8
  e4:	00000297          	auipc	t0,0x0
  e8:	01028293          	add	t0,t0,16 # f4 <reset_vector+0xa4>
  ec:	30529073          	csrw	mtvec,t0
  f0:	18005073          	csrw	satp,0
  f4:	00000297          	auipc	t0,0x0
  f8:	02028293          	add	t0,t0,32 # 114 <reset_vector+0xc4>
  fc:	30529073          	csrw	mtvec,t0
 100:	800002b7          	lui	t0,0x80000
 104:	fff28293          	add	t0,t0,-1 # 7fffffff <_end+0x7fffdfff>
 108:	3b029073          	csrw	pmpaddr0,t0
 10c:	01f00293          	li	t0,31
 110:	3a029073          	csrw	pmpcfg0,t0
 114:	30405073          	csrw	mie,0
 118:	00000297          	auipc	t0,0x0
 11c:	01428293          	add	t0,t0,20 # 12c <reset_vector+0xdc>
 120:	30529073          	csrw	mtvec,t0
 124:	30205073          	csrw	medeleg,0
 128:	30305073          	csrw	mideleg,0
 12c:	00000193          	li	gp,0
 130:	00000297          	auipc	t0,0x0
 134:	ed428293          	add	t0,t0,-300 # 4 <trap_vector>
 138:	30529073          	csrw	mtvec,t0
 13c:	00100513          	li	a0,1
 140:	01f51513          	sll	a0,a0,0x1f
 144:	00054c63          	bltz	a0,15c <reset_vector+0x10c>
 148:	0ff0000f          	fence
 14c:	00100193          	li	gp,1
 150:	05d00893          	li	a7,93
 154:	00000513          	li	a0,0
 158:	00000073          	ecall
 15c:	00000293          	li	t0,0
 160:	00028a63          	beqz	t0,174 <reset_vector+0x124>
 164:	10529073          	csrw	stvec,t0
 168:	0000b2b7          	lui	t0,0xb
 16c:	10928293          	add	t0,t0,265 # b109 <_end+0x9109>
 170:	30229073          	csrw	medeleg,t0
 174:	30005073          	csrw	mstatus,0
 178:	00000297          	auipc	t0,0x0
 17c:	01428293          	add	t0,t0,20 # 18c <test_2>
 180:	34129073          	csrw	mepc,t0
 184:	f1402573          	csrr	a0,mhartid
 188:	30200073          	mret

0000018c <test_2>:
 18c:	00200193          	li	gp,2
 190:	ff0100b7          	lui	ra,0xff010
 194:	f0008093          	add	ra,ra,-256 # ff00ff00 <_end+0xff00df00>
 198:	0f0f1137          	lui	sp,0xf0f1
 19c:	f0f10113          	add	sp,sp,-241 # f0f0f0f <_end+0xf0eef0f>
 1a0:	0020c733          	xor	a4,ra,sp
 1a4:	f00ff3b7          	lui	t2,0xf00ff
 1a8:	00f38393          	add	t2,t2,15 # f00ff00f <_end+0xf00fd00f>
 1ac:	4a771063          	bne	a4,t2,64c <fail>

000001b0 <test_3>:
 1b0:	00300193          	li	gp,3
 1b4:	0ff010b7          	lui	ra,0xff01
 1b8:	ff008093          	add	ra,ra,-16 # ff00ff0 <_end+0xfefeff0>
 1bc:	f0f0f137          	lui	sp,0xf0f0f
 1c0:	0f010113          	add	sp,sp,240 # f0f0f0f0 <_end+0xf0f0d0f0>
 1c4:	0020c733          	xor	a4,ra,sp
 1c8:	ff0103b7          	lui	t2,0xff010
 1cc:	f0038393          	add	t2,t2,-256 # ff00ff00 <_end+0xff00df00>
 1d0:	46771e63          	bne	a4,t2,64c <fail>

000001d4 <test_4>:
 1d4:	00400193          	li	gp,4
 1d8:	00ff00b7          	lui	ra,0xff0
 1dc:	0ff08093          	add	ra,ra,255 # ff00ff <_end+0xfee0ff>
 1e0:	0f0f1137          	lui	sp,0xf0f1
 1e4:	f0f10113          	add	sp,sp,-241 # f0f0f0f <_end+0xf0eef0f>
 1e8:	0020c733          	xor	a4,ra,sp
 1ec:	0ff013b7          	lui	t2,0xff01
 1f0:	ff038393          	add	t2,t2,-16 # ff00ff0 <_end+0xfefeff0>
 1f4:	44771c63          	bne	a4,t2,64c <fail>

000001f8 <test_5>:
 1f8:	00500193          	li	gp,5
 1fc:	f00ff0b7          	lui	ra,0xf00ff
 200:	00f08093          	add	ra,ra,15 # f00ff00f <_end+0xf00fd00f>
 204:	f0f0f137          	lui	sp,0xf0f0f
 208:	0f010113          	add	sp,sp,240 # f0f0f0f0 <_end+0xf0f0d0f0>
 20c:	0020c733          	xor	a4,ra,sp
 210:	00ff03b7          	lui	t2,0xff0
 214:	0ff38393          	add	t2,t2,255 # ff00ff <_end+0xfee0ff>
 218:	42771a63          	bne	a4,t2,64c <fail>

0000021c <test_6>:
 21c:	00600193          	li	gp,6
 220:	ff0100b7          	lui	ra,0xff010
 224:	f0008093          	add	ra,ra,-256 # ff00ff00 <_end+0xff00df00>
 228:	0f0f1137          	lui	sp,0xf0f1
 22c:	f0f10113          	add	sp,sp,-241 # f0f0f0f <_end+0xf0eef0f>
 230:	0020c0b3          	xor	ra,ra,sp
 234:	f00ff3b7          	lui	t2,0xf00ff
 238:	00f38393          	add	t2,t2,15 # f00ff00f <_end+0xf00fd00f>
 23c:	40709863          	bne	ra,t2,64c <fail>

00000240 <test_7>:
 240:	00700193          	li	gp,7
 244:	ff0100b7          	lui	ra,0xff010
 248:	f0008093          	add	ra,ra,-256 # ff00ff00 <_end+0xff00df00>
 24c:	0f0f1137          	lui	sp,0xf0f1
 250:	f0f10113          	add	sp,sp,-241 # f0f0f0f <_end+0xf0eef0f>
 254:	0020c133          	xor	sp,ra,sp
 258:	f00ff3b7          	lui	t2,0xf00ff
 25c:	00f38393          	add	t2,t2,15 # f00ff00f <_end+0xf00fd00f>
 260:	3e711663          	bne	sp,t2,64c <fail>

00000264 <test_8>:
 264:	00800193          	li	gp,8
 268:	ff0100b7          	lui	ra,0xff010
 26c:	f0008093          	add	ra,ra,-256 # ff00ff00 <_end+0xff00df00>
 270:	0010c0b3          	xor	ra,ra,ra
 274:	00000393          	li	t2,0
 278:	3c709a63          	bne	ra,t2,64c <fail>

0000027c <test_9>:
 27c:	00900193          	li	gp,9
 280:	00000213          	li	tp,0
 284:	ff0100b7          	lui	ra,0xff010
 288:	f0008093          	add	ra,ra,-256 # ff00ff00 <_end+0xff00df00>
 28c:	0f0f1137          	lui	sp,0xf0f1
 290:	f0f10113          	add	sp,sp,-241 # f0f0f0f <_end+0xf0eef0f>
 294:	0020c733          	xor	a4,ra,sp
 298:	00070313          	mv	t1,a4
 29c:	00120213          	add	tp,tp,1 # 1 <_start+0x1>
 2a0:	00200293          	li	t0,2
 2a4:	fe5210e3          	bne	tp,t0,284 <test_9+0x8>
 2a8:	f00ff3b7          	lui	t2,0xf00ff
 2ac:	00f38393          	add	t2,t2,15 # f00ff00f <_end+0xf00fd00f>
 2b0:	38731e63          	bne	t1,t2,64c <fail>

000002b4 <test_10>:
 2b4:	00a00193          	li	gp,10
 2b8:	00000213          	li	tp,0
 2bc:	0ff010b7          	lui	ra,0xff01
 2c0:	ff008093          	add	ra,ra,-16 # ff00ff0 <_end+0xfefeff0>
 2c4:	f0f0f137          	lui	sp,0xf0f0f
 2c8:	0f010113          	add	sp,sp,240 # f0f0f0f0 <_end+0xf0f0d0f0>
 2cc:	0020c733          	xor	a4,ra,sp
 2d0:	00000013          	nop
 2d4:	00070313          	mv	t1,a4
 2d8:	00120213          	add	tp,tp,1 # 1 <_start+0x1>
 2dc:	00200293          	li	t0,2
 2e0:	fc521ee3          	bne	tp,t0,2bc <test_10+0x8>
 2e4:	ff0103b7          	lui	t2,0xff010
 2e8:	f0038393          	add	t2,t2,-256 # ff00ff00 <_end+0xff00df00>
 2ec:	36731063          	bne	t1,t2,64c <fail>

000002f0 <test_11>:
 2f0:	00b00193          	li	gp,11
 2f4:	00000213          	li	tp,0
 2f8:	00ff00b7          	lui	ra,0xff0
 2fc:	0ff08093          	add	ra,ra,255 # ff00ff <_end+0xfee0ff>
 300:	0f0f1137          	lui	sp,0xf0f1
 304:	f0f10113          	add	sp,sp,-241 # f0f0f0f <_end+0xf0eef0f>
 308:	0020c733          	xor	a4,ra,sp
 30c:	00000013          	nop
 310:	00000013          	nop
 314:	00070313          	mv	t1,a4
 318:	00120213          	add	tp,tp,1 # 1 <_start+0x1>
 31c:	00200293          	li	t0,2
 320:	fc521ce3          	bne	tp,t0,2f8 <test_11+0x8>
 324:	0ff013b7          	lui	t2,0xff01
 328:	ff038393          	add	t2,t2,-16 # ff00ff0 <_end+0xfefeff0>
 32c:	32731063          	bne	t1,t2,64c <fail>

00000330 <test_12>:
 330:	00c00193          	li	gp,12
 334:	00000213          	li	tp,0
 338:	ff0100b7          	lui	ra,0xff010
 33c:	f0008093          	add	ra,ra,-256 # ff00ff00 <_end+0xff00df00>
 340:	0f0f1137          	lui	sp,0xf0f1
 344:	f0f10113          	add	sp,sp,-241 # f0f0f0f <_end+0xf0eef0f>
 348:	0020c733          	xor	a4,ra,sp
 34c:	00120213          	add	tp,tp,1 # 1 <_start+0x1>
 350:	00200293          	li	t0,2
 354:	fe5212e3          	bne	tp,t0,338 <test_12+0x8>
 358:	f00ff3b7          	lui	t2,0xf00ff
 35c:	00f38393          	add	t2,t2,15 # f00ff00f <_end+0xf00fd00f>
 360:	2e771663          	bne	a4,t2,64c <fail>

00000364 <test_13>:
 364:	00d00193          	li	gp,13
 368:	00000213          	li	tp,0
 36c:	0ff010b7          	lui	ra,0xff01
 370:	ff008093          	add	ra,ra,-16 # ff00ff0 <_end+0xfefeff0>
 374:	f0f0f137          	lui	sp,0xf0f0f
 378:	0f010113          	add	sp,sp,240 # f0f0f0f0 <_end+0xf0f0d0f0>
 37c:	00000013          	nop
 380:	0020c733          	xor	a4,ra,sp
 384:	00120213          	add	tp,tp,1 # 1 <_start+0x1>
 388:	00200293          	li	t0,2
 38c:	fe5210e3          	bne	tp,t0,36c <test_13+0x8>
 390:	ff0103b7          	lui	t2,0xff010
 394:	f0038393          	add	t2,t2,-256 # ff00ff00 <_end+0xff00df00>
 398:	2a771a63          	bne	a4,t2,64c <fail>

0000039c <test_14>:
 39c:	00e00193          	li	gp,14
 3a0:	00000213          	li	tp,0
 3a4:	00ff00b7          	lui	ra,0xff0
 3a8:	0ff08093          	add	ra,ra,255 # ff00ff <_end+0xfee0ff>
 3ac:	0f0f1137          	lui	sp,0xf0f1
 3b0:	f0f10113          	add	sp,sp,-241 # f0f0f0f <_end+0xf0eef0f>
 3b4:	00000013          	nop
 3b8:	00000013          	nop
 3bc:	0020c733          	xor	a4,ra,sp
 3c0:	00120213          	add	tp,tp,1 # 1 <_start+0x1>
 3c4:	00200293          	li	t0,2
 3c8:	fc521ee3          	bne	tp,t0,3a4 <test_14+0x8>
 3cc:	0ff013b7          	lui	t2,0xff01
 3d0:	ff038393          	add	t2,t2,-16 # ff00ff0 <_end+0xfefeff0>
 3d4:	26771c63          	bne	a4,t2,64c <fail>

000003d8 <test_15>:
 3d8:	00f00193          	li	gp,15
 3dc:	00000213          	li	tp,0
 3e0:	ff0100b7          	lui	ra,0xff010
 3e4:	f0008093          	add	ra,ra,-256 # ff00ff00 <_end+0xff00df00>
 3e8:	00000013          	nop
 3ec:	0f0f1137          	lui	sp,0xf0f1
 3f0:	f0f10113          	add	sp,sp,-241 # f0f0f0f <_end+0xf0eef0f>
 3f4:	0020c733          	xor	a4,ra,sp
 3f8:	00120213          	add	tp,tp,1 # 1 <_start+0x1>
 3fc:	00200293          	li	t0,2
 400:	fe5210e3          	bne	tp,t0,3e0 <test_15+0x8>
 404:	f00ff3b7          	lui	t2,0xf00ff
 408:	00f38393          	add	t2,t2,15 # f00ff00f <_end+0xf00fd00f>
 40c:	24771063          	bne	a4,t2,64c <fail>

00000410 <test_16>:
 410:	01000193          	li	gp,16
 414:	00000213          	li	tp,0
 418:	0ff010b7          	lui	ra,0xff01
 41c:	ff008093          	add	ra,ra,-16 # ff00ff0 <_end+0xfefeff0>
 420:	00000013          	nop
 424:	f0f0f137          	lui	sp,0xf0f0f
 428:	0f010113          	add	sp,sp,240 # f0f0f0f0 <_end+0xf0f0d0f0>
 42c:	00000013          	nop
 430:	0020c733          	xor	a4,ra,sp
 434:	00120213          	add	tp,tp,1 # 1 <_start+0x1>
 438:	00200293          	li	t0,2
 43c:	fc521ee3          	bne	tp,t0,418 <test_16+0x8>
 440:	ff0103b7          	lui	t2,0xff010
 444:	f0038393          	add	t2,t2,-256 # ff00ff00 <_end+0xff00df00>
 448:	20771263          	bne	a4,t2,64c <fail>

0000044c <test_17>:
 44c:	01100193          	li	gp,17
 450:	00000213          	li	tp,0
 454:	00ff00b7          	lui	ra,0xff0
 458:	0ff08093          	add	ra,ra,255 # ff00ff <_end+0xfee0ff>
 45c:	00000013          	nop
 460:	00000013          	nop
 464:	0f0f1137          	lui	sp,0xf0f1
 468:	f0f10113          	add	sp,sp,-241 # f0f0f0f <_end+0xf0eef0f>
 46c:	0020c733          	xor	a4,ra,sp
 470:	00120213          	add	tp,tp,1 # 1 <_start+0x1>
 474:	00200293          	li	t0,2
 478:	fc521ee3          	bne	tp,t0,454 <test_17+0x8>
 47c:	0ff013b7          	lui	t2,0xff01
 480:	ff038393          	add	t2,t2,-16 # ff00ff0 <_end+0xfefeff0>
 484:	1c771463          	bne	a4,t2,64c <fail>

00000488 <test_18>:
 488:	01200193          	li	gp,18
 48c:	00000213          	li	tp,0
 490:	0f0f1137          	lui	sp,0xf0f1
 494:	f0f10113          	add	sp,sp,-241 # f0f0f0f <_end+0xf0eef0f>
 498:	ff0100b7          	lui	ra,0xff010
 49c:	f0008093          	add	ra,ra,-256 # ff00ff00 <_end+0xff00df00>
 4a0:	0020c733          	xor	a4,ra,sp
 4a4:	00120213          	add	tp,tp,1 # 1 <_start+0x1>
 4a8:	00200293          	li	t0,2
 4ac:	fe5212e3          	bne	tp,t0,490 <test_18+0x8>
 4b0:	f00ff3b7          	lui	t2,0xf00ff
 4b4:	00f38393          	add	t2,t2,15 # f00ff00f <_end+0xf00fd00f>
 4b8:	18771a63          	bne	a4,t2,64c <fail>

000004bc <test_19>:
 4bc:	01300193          	li	gp,19
 4c0:	00000213          	li	tp,0
 4c4:	f0f0f137          	lui	sp,0xf0f0f
 4c8:	0f010113          	add	sp,sp,240 # f0f0f0f0 <_end+0xf0f0d0f0>
 4cc:	0ff010b7          	lui	ra,0xff01
 4d0:	ff008093          	add	ra,ra,-16 # ff00ff0 <_end+0xfefeff0>
 4d4:	00000013          	nop
 4d8:	0020c733          	xor	a4,ra,sp
 4dc:	00120213          	add	tp,tp,1 # 1 <_start+0x1>
 4e0:	00200293          	li	t0,2
 4e4:	fe5210e3          	bne	tp,t0,4c4 <test_19+0x8>
 4e8:	ff0103b7          	lui	t2,0xff010
 4ec:	f0038393          	add	t2,t2,-256 # ff00ff00 <_end+0xff00df00>
 4f0:	14771e63          	bne	a4,t2,64c <fail>

000004f4 <test_20>:
 4f4:	01400193          	li	gp,20
 4f8:	00000213          	li	tp,0
 4fc:	0f0f1137          	lui	sp,0xf0f1
 500:	f0f10113          	add	sp,sp,-241 # f0f0f0f <_end+0xf0eef0f>
 504:	00ff00b7          	lui	ra,0xff0
 508:	0ff08093          	add	ra,ra,255 # ff00ff <_end+0xfee0ff>
 50c:	00000013          	nop
 510:	00000013          	nop
 514:	0020c733          	xor	a4,ra,sp
 518:	00120213          	add	tp,tp,1 # 1 <_start+0x1>
 51c:	00200293          	li	t0,2
 520:	fc521ee3          	bne	tp,t0,4fc <test_20+0x8>
 524:	0ff013b7          	lui	t2,0xff01
 528:	ff038393          	add	t2,t2,-16 # ff00ff0 <_end+0xfefeff0>
 52c:	12771063          	bne	a4,t2,64c <fail>

00000530 <test_21>:
 530:	01500193          	li	gp,21
 534:	00000213          	li	tp,0
 538:	0f0f1137          	lui	sp,0xf0f1
 53c:	f0f10113          	add	sp,sp,-241 # f0f0f0f <_end+0xf0eef0f>
 540:	00000013          	nop
 544:	ff0100b7          	lui	ra,0xff010
 548:	f0008093          	add	ra,ra,-256 # ff00ff00 <_end+0xff00df00>
 54c:	0020c733          	xor	a4,ra,sp
 550:	00120213          	add	tp,tp,1 # 1 <_start+0x1>
 554:	00200293          	li	t0,2
 558:	fe5210e3          	bne	tp,t0,538 <test_21+0x8>
 55c:	f00ff3b7          	lui	t2,0xf00ff
 560:	00f38393          	add	t2,t2,15 # f00ff00f <_end+0xf00fd00f>
 564:	0e771463          	bne	a4,t2,64c <fail>

00000568 <test_22>:
 568:	01600193          	li	gp,22
 56c:	00000213          	li	tp,0
 570:	f0f0f137          	lui	sp,0xf0f0f
 574:	0f010113          	add	sp,sp,240 # f0f0f0f0 <_end+0xf0f0d0f0>
 578:	00000013          	nop
 57c:	0ff010b7          	lui	ra,0xff01
 580:	ff008093          	add	ra,ra,-16 # ff00ff0 <_end+0xfefeff0>
 584:	00000013          	nop
 588:	0020c733          	xor	a4,ra,sp
 58c:	00120213          	add	tp,tp,1 # 1 <_start+0x1>
 590:	00200293          	li	t0,2
 594:	fc521ee3          	bne	tp,t0,570 <test_22+0x8>
 598:	ff0103b7          	lui	t2,0xff010
 59c:	f0038393          	add	t2,t2,-256 # ff00ff00 <_end+0xff00df00>
 5a0:	0a771663          	bne	a4,t2,64c <fail>

000005a4 <test_23>:
 5a4:	01700193          	li	gp,23
 5a8:	00000213          	li	tp,0
 5ac:	0f0f1137          	lui	sp,0xf0f1
 5b0:	f0f10113          	add	sp,sp,-241 # f0f0f0f <_end+0xf0eef0f>
 5b4:	00000013          	nop
 5b8:	00000013          	nop
 5bc:	00ff00b7          	lui	ra,0xff0
 5c0:	0ff08093          	add	ra,ra,255 # ff00ff <_end+0xfee0ff>
 5c4:	0020c733          	xor	a4,ra,sp
 5c8:	00120213          	add	tp,tp,1 # 1 <_start+0x1>
 5cc:	00200293          	li	t0,2
 5d0:	fc521ee3          	bne	tp,t0,5ac <test_23+0x8>
 5d4:	0ff013b7          	lui	t2,0xff01
 5d8:	ff038393          	add	t2,t2,-16 # ff00ff0 <_end+0xfefeff0>
 5dc:	06771863          	bne	a4,t2,64c <fail>

000005e0 <test_24>:
 5e0:	01800193          	li	gp,24
 5e4:	ff0100b7          	lui	ra,0xff010
 5e8:	f0008093          	add	ra,ra,-256 # ff00ff00 <_end+0xff00df00>
 5ec:	00104133          	xor	sp,zero,ra
 5f0:	ff0103b7          	lui	t2,0xff010
 5f4:	f0038393          	add	t2,t2,-256 # ff00ff00 <_end+0xff00df00>
 5f8:	04711a63          	bne	sp,t2,64c <fail>

000005fc <test_25>:
 5fc:	01900193          	li	gp,25
 600:	00ff00b7          	lui	ra,0xff0
 604:	0ff08093          	add	ra,ra,255 # ff00ff <_end+0xfee0ff>
 608:	0000c133          	xor	sp,ra,zero
 60c:	00ff03b7          	lui	t2,0xff0
 610:	0ff38393          	add	t2,t2,255 # ff00ff <_end+0xfee0ff>
 614:	02711c63          	bne	sp,t2,64c <fail>

00000618 <test_26>:
 618:	01a00193          	li	gp,26
 61c:	000040b3          	xor	ra,zero,zero
 620:	00000393          	li	t2,0
 624:	02709463          	bne	ra,t2,64c <fail>

00000628 <test_27>:
 628:	01b00193          	li	gp,27
 62c:	111110b7          	lui	ra,0x11111
 630:	11108093          	add	ra,ra,273 # 11111111 <_end+0x1110f111>
 634:	22222137          	lui	sp,0x22222
 638:	22210113          	add	sp,sp,546 # 22222222 <_end+0x22220222>
 63c:	0020c033          	xor	zero,ra,sp
 640:	00000393          	li	t2,0
 644:	00701463          	bne	zero,t2,64c <fail>
 648:	02301063          	bne	zero,gp,668 <pass>

0000064c <fail>:
 64c:	0ff0000f          	fence
 650:	00018063          	beqz	gp,650 <fail+0x4>
 654:	00119193          	sll	gp,gp,0x1
 658:	0011e193          	or	gp,gp,1
 65c:	05d00893          	li	a7,93
 660:	00018513          	mv	a0,gp
 664:	00000073          	ecall

00000668 <pass>:
 668:	0ff0000f          	fence
 66c:	00100193          	li	gp,1
 670:	05d00893          	li	a7,93
 674:	00000513          	li	a0,0
 678:	00000073          	ecall
 67c:	c0001073          	unimp
	...
