
output.elf:     file format elf32-littleriscv


Disassembly of section .text:

00000000 <_start>:
   0:	00001137          	lui	sp,0x1
   4:	80010113          	add	sp,sp,-2048 # 800 <gLedMode+0x3fc>
   8:	00800293          	li	t0,8
   c:	3002a073          	csrs	mstatus,t0
  10:	00000297          	auipc	t0,0x0
  14:	08028293          	add	t0,t0,128 # 90 <timer_handler>
  18:	30529073          	csrw	mtvec,t0
  1c:	008000ef          	jal	24 <blink>
  20:	c0001073          	unimp

00000024 <blink>:
  24:	ff010113          	add	sp,sp,-16
  28:	00812623          	sw	s0,12(sp)
  2c:	01010413          	add	s0,sp,16
  30:	28b01713          	bset	a4,zero,0xb
  34:	40002783          	lw	a5,1024(zero) # 400 <gLedIndex>
  38:	00279793          	sll	a5,a5,0x2
  3c:	00f707b3          	add	a5,a4,a5
  40:	00100713          	li	a4,1
  44:	00e7a023          	sw	a4,0(a5)
  48:	000017b7          	lui	a5,0x1
  4c:	90078793          	add	a5,a5,-1792 # 900 <gLedMode+0x4fc>
  50:	06400713          	li	a4,100
  54:	00e7a023          	sw	a4,0(a5)
  58:	000017b7          	lui	a5,0x1
  5c:	90078793          	add	a5,a5,-1792 # 900 <gLedMode+0x4fc>
  60:	00478793          	add	a5,a5,4
  64:	0007a023          	sw	zero,0(a5)
  68:	000017b7          	lui	a5,0x1
  6c:	90078793          	add	a5,a5,-1792 # 900 <gLedMode+0x4fc>
  70:	00c78793          	add	a5,a5,12
  74:	0007a023          	sw	zero,0(a5)
  78:	000017b7          	lui	a5,0x1
  7c:	90078793          	add	a5,a5,-1792 # 900 <gLedMode+0x4fc>
  80:	00878793          	add	a5,a5,8
  84:	0007a023          	sw	zero,0(a5)
  88:	10500073          	wfi
  8c:	ffdff06f          	j	88 <blink+0x64>

00000090 <timer_handler>:
  90:	ff010113          	add	sp,sp,-16
  94:	00812623          	sw	s0,12(sp)
  98:	00d12423          	sw	a3,8(sp)
  9c:	00e12223          	sw	a4,4(sp)
  a0:	00f12023          	sw	a5,0(sp)
  a4:	01010413          	add	s0,sp,16
  a8:	40402783          	lw	a5,1028(zero) # 404 <gLedMode>
  ac:	08079863          	bnez	a5,13c <timer_handler+0xac>
  b0:	28b01713          	bset	a4,zero,0xb
  b4:	40002783          	lw	a5,1024(zero) # 400 <gLedIndex>
  b8:	00279793          	sll	a5,a5,0x2
  bc:	00f707b3          	add	a5,a4,a5
  c0:	0007a023          	sw	zero,0(a5)
  c4:	40002783          	lw	a5,1024(zero) # 400 <gLedIndex>
  c8:	00178793          	add	a5,a5,1
  cc:	00f7f713          	and	a4,a5,15
  d0:	40e02023          	sw	a4,1024(zero) # 400 <gLedIndex>
  d4:	28b01713          	bset	a4,zero,0xb
  d8:	40002783          	lw	a5,1024(zero) # 400 <gLedIndex>
  dc:	00279793          	sll	a5,a5,0x2
  e0:	00f707b3          	add	a5,a4,a5
  e4:	00100713          	li	a4,1
  e8:	00e7a023          	sw	a4,0(a5)
  ec:	40002783          	lw	a5,1024(zero) # 400 <gLedIndex>
  f0:	02079463          	bnez	a5,118 <timer_handler+0x88>
  f4:	00100713          	li	a4,1
  f8:	40e02223          	sw	a4,1028(zero) # 404 <gLedMode>
  fc:	28b01793          	bset	a5,zero,0xb
 100:	00100713          	li	a4,1
 104:	00e7a023          	sw	a4,0(a5)
 108:	28b01793          	bset	a5,zero,0xb
 10c:	03c78793          	add	a5,a5,60
 110:	00100713          	li	a4,1
 114:	00e7a023          	sw	a4,0(a5)
 118:	000017b7          	lui	a5,0x1
 11c:	90078793          	add	a5,a5,-1792 # 900 <gLedMode+0x4fc>
 120:	00c78793          	add	a5,a5,12
 124:	0007a023          	sw	zero,0(a5)
 128:	000017b7          	lui	a5,0x1
 12c:	90078793          	add	a5,a5,-1792 # 900 <gLedMode+0x4fc>
 130:	00878793          	add	a5,a5,8
 134:	0007a023          	sw	zero,0(a5)
 138:	0b40006f          	j	1ec <timer_handler+0x15c>
 13c:	28b01713          	bset	a4,zero,0xb
 140:	40002783          	lw	a5,1024(zero) # 400 <gLedIndex>
 144:	00279793          	sll	a5,a5,0x2
 148:	00f707b3          	add	a5,a4,a5
 14c:	0007a023          	sw	zero,0(a5)
 150:	28b01713          	bset	a4,zero,0xb
 154:	40002783          	lw	a5,1024(zero) # 400 <gLedIndex>
 158:	00f00693          	li	a3,15
 15c:	40f687b3          	sub	a5,a3,a5
 160:	00279793          	sll	a5,a5,0x2
 164:	00f707b3          	add	a5,a4,a5
 168:	0007a023          	sw	zero,0(a5)
 16c:	40002783          	lw	a5,1024(zero) # 400 <gLedIndex>
 170:	00178793          	add	a5,a5,1
 174:	0077f713          	and	a4,a5,7
 178:	40e02023          	sw	a4,1024(zero) # 400 <gLedIndex>
 17c:	28b01713          	bset	a4,zero,0xb
 180:	40002783          	lw	a5,1024(zero) # 400 <gLedIndex>
 184:	00279793          	sll	a5,a5,0x2
 188:	00f707b3          	add	a5,a4,a5
 18c:	00100713          	li	a4,1
 190:	00e7a023          	sw	a4,0(a5)
 194:	28b01713          	bset	a4,zero,0xb
 198:	40002783          	lw	a5,1024(zero) # 400 <gLedIndex>
 19c:	00f00693          	li	a3,15
 1a0:	40f687b3          	sub	a5,a3,a5
 1a4:	00279793          	sll	a5,a5,0x2
 1a8:	00f707b3          	add	a5,a4,a5
 1ac:	00100713          	li	a4,1
 1b0:	00e7a023          	sw	a4,0(a5)
 1b4:	000017b7          	lui	a5,0x1
 1b8:	90078793          	add	a5,a5,-1792 # 900 <gLedMode+0x4fc>
 1bc:	00c78793          	add	a5,a5,12
 1c0:	0007a023          	sw	zero,0(a5)
 1c4:	000017b7          	lui	a5,0x1
 1c8:	90078793          	add	a5,a5,-1792 # 900 <gLedMode+0x4fc>
 1cc:	00878793          	add	a5,a5,8
 1d0:	0007a023          	sw	zero,0(a5)
 1d4:	40002783          	lw	a5,1024(zero) # 400 <gLedIndex>
 1d8:	00079a63          	bnez	a5,1ec <timer_handler+0x15c>
 1dc:	40002223          	sw	zero,1028(zero) # 404 <gLedMode>
 1e0:	28b01793          	bset	a5,zero,0xb
 1e4:	03c78793          	add	a5,a5,60
 1e8:	0007a023          	sw	zero,0(a5)
 1ec:	00000013          	nop
 1f0:	00c12403          	lw	s0,12(sp)
 1f4:	00812683          	lw	a3,8(sp)
 1f8:	00412703          	lw	a4,4(sp)
 1fc:	00012783          	lw	a5,0(sp)
 200:	01010113          	add	sp,sp,16
 204:	30200073          	mret
