
beq.elf:     file format elf32-littleriscv


Disassembly of section .text.init:

00000000 <_start>:
   0:	0040006f          	j	4 <reset_vector>

00000004 <reset_vector>:
   4:	00000093          	li	ra,0
   8:	00000113          	li	sp,0
   c:	00000193          	li	gp,0
  10:	00000213          	li	tp,0
  14:	00000293          	li	t0,0
  18:	00000313          	li	t1,0
  1c:	00000393          	li	t2,0
  20:	00000413          	li	s0,0
  24:	00000493          	li	s1,0
  28:	00000513          	li	a0,0
  2c:	00000593          	li	a1,0
  30:	00000613          	li	a2,0
  34:	00000693          	li	a3,0
  38:	00000713          	li	a4,0
  3c:	00000793          	li	a5,0
  40:	00000813          	li	a6,0
  44:	00000893          	li	a7,0
  48:	00000913          	li	s2,0
  4c:	00000993          	li	s3,0
  50:	00000a13          	li	s4,0
  54:	00000a93          	li	s5,0
  58:	00000b13          	li	s6,0
  5c:	00000b93          	li	s7,0
  60:	00000c13          	li	s8,0
  64:	00000c93          	li	s9,0
  68:	00000d13          	li	s10,0
  6c:	00000d93          	li	s11,0
  70:	00000e13          	li	t3,0
  74:	00000e93          	li	t4,0
  78:	00000f13          	li	t5,0
  7c:	00000f93          	li	t6,0
  80:	00000193          	li	gp,0
  84:	00100513          	li	a0,1
  88:	01f51513          	sll	a0,a0,0x1f
  8c:	02054263          	bltz	a0,b0 <reset_vector+0xac>
  90:	0ff0000f          	fence
  94:	04f00513          	li	a0,79
  98:	fea00fa3          	sb	a0,-1(zero) # ffffffff <_end+0xffffdfff>
  9c:	06b00513          	li	a0,107
  a0:	fea00fa3          	sb	a0,-1(zero) # ffffffff <_end+0xffffdfff>
  a4:	00a00513          	li	a0,10
  a8:	fea00fa3          	sb	a0,-1(zero) # ffffffff <_end+0xffffdfff>
  ac:	00100193          	li	gp,1
  b0:	30005073          	csrw	mstatus,0
  b4:	00000297          	auipc	t0,0x0
  b8:	01428293          	add	t0,t0,20 # c8 <test_2>
  bc:	34129073          	csrw	mepc,t0
  c0:	f1402573          	csrr	a0,mhartid
  c4:	30200073          	mret

000000c8 <test_2>:
  c8:	00200193          	li	gp,2
  cc:	00000093          	li	ra,0
  d0:	00000113          	li	sp,0
  d4:	00208663          	beq	ra,sp,e0 <test_2+0x18>
  d8:	2a301863          	bne	zero,gp,388 <fail>
  dc:	00301663          	bne	zero,gp,e8 <test_3>
  e0:	fe208ee3          	beq	ra,sp,dc <test_2+0x14>
  e4:	2a301263          	bne	zero,gp,388 <fail>

000000e8 <test_3>:
  e8:	00300193          	li	gp,3
  ec:	00100093          	li	ra,1
  f0:	00100113          	li	sp,1
  f4:	00208663          	beq	ra,sp,100 <test_3+0x18>
  f8:	28301863          	bne	zero,gp,388 <fail>
  fc:	00301663          	bne	zero,gp,108 <test_4>
 100:	fe208ee3          	beq	ra,sp,fc <test_3+0x14>
 104:	28301263          	bne	zero,gp,388 <fail>

00000108 <test_4>:
 108:	00400193          	li	gp,4
 10c:	fff00093          	li	ra,-1
 110:	fff00113          	li	sp,-1
 114:	00208663          	beq	ra,sp,120 <test_4+0x18>
 118:	26301863          	bne	zero,gp,388 <fail>
 11c:	00301663          	bne	zero,gp,128 <test_5>
 120:	fe208ee3          	beq	ra,sp,11c <test_4+0x14>
 124:	26301263          	bne	zero,gp,388 <fail>

00000128 <test_5>:
 128:	00500193          	li	gp,5
 12c:	00000093          	li	ra,0
 130:	00100113          	li	sp,1
 134:	00208463          	beq	ra,sp,13c <test_5+0x14>
 138:	00301463          	bne	zero,gp,140 <test_5+0x18>
 13c:	24301663          	bne	zero,gp,388 <fail>
 140:	fe208ee3          	beq	ra,sp,13c <test_5+0x14>

00000144 <test_6>:
 144:	00600193          	li	gp,6
 148:	00100093          	li	ra,1
 14c:	00000113          	li	sp,0
 150:	00208463          	beq	ra,sp,158 <test_6+0x14>
 154:	00301463          	bne	zero,gp,15c <test_6+0x18>
 158:	22301863          	bne	zero,gp,388 <fail>
 15c:	fe208ee3          	beq	ra,sp,158 <test_6+0x14>

00000160 <test_7>:
 160:	00700193          	li	gp,7
 164:	fff00093          	li	ra,-1
 168:	00100113          	li	sp,1
 16c:	00208463          	beq	ra,sp,174 <test_7+0x14>
 170:	00301463          	bne	zero,gp,178 <test_7+0x18>
 174:	20301a63          	bne	zero,gp,388 <fail>
 178:	fe208ee3          	beq	ra,sp,174 <test_7+0x14>

0000017c <test_8>:
 17c:	00800193          	li	gp,8
 180:	00100093          	li	ra,1
 184:	fff00113          	li	sp,-1
 188:	00208463          	beq	ra,sp,190 <test_8+0x14>
 18c:	00301463          	bne	zero,gp,194 <test_8+0x18>
 190:	1e301c63          	bne	zero,gp,388 <fail>
 194:	fe208ee3          	beq	ra,sp,190 <test_8+0x14>

00000198 <test_9>:
 198:	00900193          	li	gp,9
 19c:	00000213          	li	tp,0
 1a0:	00000093          	li	ra,0
 1a4:	fff00113          	li	sp,-1
 1a8:	1e208063          	beq	ra,sp,388 <fail>
 1ac:	00120213          	add	tp,tp,1 # 1 <_start+0x1>
 1b0:	00200293          	li	t0,2
 1b4:	fe5216e3          	bne	tp,t0,1a0 <test_9+0x8>

000001b8 <test_10>:
 1b8:	00a00193          	li	gp,10
 1bc:	00000213          	li	tp,0
 1c0:	00000093          	li	ra,0
 1c4:	fff00113          	li	sp,-1
 1c8:	00000013          	nop
 1cc:	1a208e63          	beq	ra,sp,388 <fail>
 1d0:	00120213          	add	tp,tp,1 # 1 <_start+0x1>
 1d4:	00200293          	li	t0,2
 1d8:	fe5214e3          	bne	tp,t0,1c0 <test_10+0x8>

000001dc <test_11>:
 1dc:	00b00193          	li	gp,11
 1e0:	00000213          	li	tp,0
 1e4:	00000093          	li	ra,0
 1e8:	fff00113          	li	sp,-1
 1ec:	00000013          	nop
 1f0:	00000013          	nop
 1f4:	18208a63          	beq	ra,sp,388 <fail>
 1f8:	00120213          	add	tp,tp,1 # 1 <_start+0x1>
 1fc:	00200293          	li	t0,2
 200:	fe5212e3          	bne	tp,t0,1e4 <test_11+0x8>

00000204 <test_12>:
 204:	00c00193          	li	gp,12
 208:	00000213          	li	tp,0
 20c:	00000093          	li	ra,0
 210:	00000013          	nop
 214:	fff00113          	li	sp,-1
 218:	16208863          	beq	ra,sp,388 <fail>
 21c:	00120213          	add	tp,tp,1 # 1 <_start+0x1>
 220:	00200293          	li	t0,2
 224:	fe5214e3          	bne	tp,t0,20c <test_12+0x8>

00000228 <test_13>:
 228:	00d00193          	li	gp,13
 22c:	00000213          	li	tp,0
 230:	00000093          	li	ra,0
 234:	00000013          	nop
 238:	fff00113          	li	sp,-1
 23c:	00000013          	nop
 240:	14208463          	beq	ra,sp,388 <fail>
 244:	00120213          	add	tp,tp,1 # 1 <_start+0x1>
 248:	00200293          	li	t0,2
 24c:	fe5212e3          	bne	tp,t0,230 <test_13+0x8>

00000250 <test_14>:
 250:	00e00193          	li	gp,14
 254:	00000213          	li	tp,0
 258:	00000093          	li	ra,0
 25c:	00000013          	nop
 260:	00000013          	nop
 264:	fff00113          	li	sp,-1
 268:	12208063          	beq	ra,sp,388 <fail>
 26c:	00120213          	add	tp,tp,1 # 1 <_start+0x1>
 270:	00200293          	li	t0,2
 274:	fe5212e3          	bne	tp,t0,258 <test_14+0x8>

00000278 <test_15>:
 278:	00f00193          	li	gp,15
 27c:	00000213          	li	tp,0
 280:	00000093          	li	ra,0
 284:	fff00113          	li	sp,-1
 288:	10208063          	beq	ra,sp,388 <fail>
 28c:	00120213          	add	tp,tp,1 # 1 <_start+0x1>
 290:	00200293          	li	t0,2
 294:	fe5216e3          	bne	tp,t0,280 <test_15+0x8>

00000298 <test_16>:
 298:	01000193          	li	gp,16
 29c:	00000213          	li	tp,0
 2a0:	00000093          	li	ra,0
 2a4:	fff00113          	li	sp,-1
 2a8:	00000013          	nop
 2ac:	0c208e63          	beq	ra,sp,388 <fail>
 2b0:	00120213          	add	tp,tp,1 # 1 <_start+0x1>
 2b4:	00200293          	li	t0,2
 2b8:	fe5214e3          	bne	tp,t0,2a0 <test_16+0x8>

000002bc <test_17>:
 2bc:	01100193          	li	gp,17
 2c0:	00000213          	li	tp,0
 2c4:	00000093          	li	ra,0
 2c8:	fff00113          	li	sp,-1
 2cc:	00000013          	nop
 2d0:	00000013          	nop
 2d4:	0a208a63          	beq	ra,sp,388 <fail>
 2d8:	00120213          	add	tp,tp,1 # 1 <_start+0x1>
 2dc:	00200293          	li	t0,2
 2e0:	fe5212e3          	bne	tp,t0,2c4 <test_17+0x8>

000002e4 <test_18>:
 2e4:	01200193          	li	gp,18
 2e8:	00000213          	li	tp,0
 2ec:	00000093          	li	ra,0
 2f0:	00000013          	nop
 2f4:	fff00113          	li	sp,-1
 2f8:	08208863          	beq	ra,sp,388 <fail>
 2fc:	00120213          	add	tp,tp,1 # 1 <_start+0x1>
 300:	00200293          	li	t0,2
 304:	fe5214e3          	bne	tp,t0,2ec <test_18+0x8>

00000308 <test_19>:
 308:	01300193          	li	gp,19
 30c:	00000213          	li	tp,0
 310:	00000093          	li	ra,0
 314:	00000013          	nop
 318:	fff00113          	li	sp,-1
 31c:	00000013          	nop
 320:	06208463          	beq	ra,sp,388 <fail>
 324:	00120213          	add	tp,tp,1 # 1 <_start+0x1>
 328:	00200293          	li	t0,2
 32c:	fe5212e3          	bne	tp,t0,310 <test_19+0x8>

00000330 <test_20>:
 330:	01400193          	li	gp,20
 334:	00000213          	li	tp,0
 338:	00000093          	li	ra,0
 33c:	00000013          	nop
 340:	00000013          	nop
 344:	fff00113          	li	sp,-1
 348:	04208063          	beq	ra,sp,388 <fail>
 34c:	00120213          	add	tp,tp,1 # 1 <_start+0x1>
 350:	00200293          	li	t0,2
 354:	fe5212e3          	bne	tp,t0,338 <test_20+0x8>

00000358 <test_21>:
 358:	01500193          	li	gp,21
 35c:	00100093          	li	ra,1
 360:	00000a63          	beqz	zero,374 <test_21+0x1c>
 364:	00108093          	add	ra,ra,1
 368:	00108093          	add	ra,ra,1
 36c:	00108093          	add	ra,ra,1
 370:	00108093          	add	ra,ra,1
 374:	00108093          	add	ra,ra,1
 378:	00108093          	add	ra,ra,1
 37c:	00300393          	li	t2,3
 380:	00709463          	bne	ra,t2,388 <fail>
 384:	02301263          	bne	zero,gp,3a8 <pass>

00000388 <fail>:
 388:	0ff0000f          	fence
 38c:	04e00513          	li	a0,78
 390:	fea00fa3          	sb	a0,-1(zero) # ffffffff <_end+0xffffdfff>
 394:	06f00513          	li	a0,111
 398:	fea00fa3          	sb	a0,-1(zero) # ffffffff <_end+0xffffdfff>
 39c:	00a00513          	li	a0,10
 3a0:	fea00fa3          	sb	a0,-1(zero) # ffffffff <_end+0xffffdfff>
 3a4:	c0001073          	unimp

000003a8 <pass>:
 3a8:	0ff0000f          	fence
 3ac:	04f00513          	li	a0,79
 3b0:	fea00fa3          	sb	a0,-1(zero) # ffffffff <_end+0xffffdfff>
 3b4:	06b00513          	li	a0,107
 3b8:	fea00fa3          	sb	a0,-1(zero) # ffffffff <_end+0xffffdfff>
 3bc:	00a00513          	li	a0,10
 3c0:	fea00fa3          	sb	a0,-1(zero) # ffffffff <_end+0xffffdfff>
 3c4:	00100193          	li	gp,1
 3c8:	c0001073          	unimp
 3cc:	c0001073          	unimp
	...
