
color2gray.elf:     file format elf32-littleriscv


Disassembly of section .text:

00000000 <main>:
   0:	7179                	add	sp,sp,-48
   2:	d622                	sw	s0,44(sp)
   4:	1800                	add	s0,sp,48
   6:	57fd                	li	a5,-1
   8:	fef42223          	sw	a5,-28(s0)
   c:	15400793          	li	a5,340
  10:	0157c783          	lbu	a5,21(a5)
  14:	01879713          	sll	a4,a5,0x18
  18:	15400793          	li	a5,340
  1c:	0147c783          	lbu	a5,20(a5)
  20:	07c2                	sll	a5,a5,0x10
  22:	8f5d                	or	a4,a4,a5
  24:	15400793          	li	a5,340
  28:	0137c783          	lbu	a5,19(a5)
  2c:	07a2                	sll	a5,a5,0x8
  2e:	8fd9                	or	a5,a5,a4
  30:	15400713          	li	a4,340
  34:	01274703          	lbu	a4,18(a4)
  38:	8fd9                	or	a5,a5,a4
  3a:	fef42023          	sw	a5,-32(s0)
  3e:	15400793          	li	a5,340
  42:	0197c783          	lbu	a5,25(a5)
  46:	01879713          	sll	a4,a5,0x18
  4a:	15400793          	li	a5,340
  4e:	0187c783          	lbu	a5,24(a5)
  52:	07c2                	sll	a5,a5,0x10
  54:	8f5d                	or	a4,a4,a5
  56:	15400793          	li	a5,340
  5a:	0177c783          	lbu	a5,23(a5)
  5e:	07a2                	sll	a5,a5,0x8
  60:	8fd9                	or	a5,a5,a4
  62:	15400713          	li	a4,340
  66:	01674703          	lbu	a4,22(a4)
  6a:	8fd9                	or	a5,a5,a4
  6c:	fcf42e23          	sw	a5,-36(s0)
  70:	fdc42703          	lw	a4,-36(s0)
  74:	fe042783          	lw	a5,-32(s0)
  78:	02f70733          	mul	a4,a4,a5
  7c:	87ba                	mv	a5,a4
  7e:	0786                	sll	a5,a5,0x1
  80:	97ba                	add	a5,a5,a4
  82:	fcf42c23          	sw	a5,-40(s0)
  86:	fe042623          	sw	zero,-20(s0)
  8a:	a07d                	j	138 <main+0x138>
  8c:	fec42703          	lw	a4,-20(s0)
  90:	03500793          	li	a5,53
  94:	08e7f263          	bgeu	a5,a4,118 <main+0x118>
  98:	fd842783          	lw	a5,-40(s0)
  9c:	03678793          	add	a5,a5,54
  a0:	fec42703          	lw	a4,-20(s0)
  a4:	06f77a63          	bgeu	a4,a5,118 <main+0x118>
  a8:	15400713          	li	a4,340
  ac:	fec42783          	lw	a5,-20(s0)
  b0:	97ba                	add	a5,a5,a4
  b2:	0007c783          	lbu	a5,0(a5)
  b6:	86be                	mv	a3,a5
  b8:	fec42783          	lw	a5,-20(s0)
  bc:	0785                	add	a5,a5,1
  be:	15400713          	li	a4,340
  c2:	97ba                	add	a5,a5,a4
  c4:	0007c783          	lbu	a5,0(a5)
  c8:	97b6                	add	a5,a5,a3
  ca:	fec42703          	lw	a4,-20(s0)
  ce:	0709                	add	a4,a4,2
  d0:	15400693          	li	a3,340
  d4:	9736                	add	a4,a4,a3
  d6:	00074703          	lbu	a4,0(a4)
  da:	973e                	add	a4,a4,a5
  dc:	478d                	li	a5,3
  de:	02f747b3          	div	a5,a4,a5
  e2:	fcf40ba3          	sb	a5,-41(s0)
  e6:	fe042423          	sw	zero,-24(s0)
  ea:	a821                	j	102 <main+0x102>
  ec:	fe442783          	lw	a5,-28(s0)
  f0:	fd744703          	lbu	a4,-41(s0)
  f4:	00e78023          	sb	a4,0(a5)
  f8:	fe842783          	lw	a5,-24(s0)
  fc:	0785                	add	a5,a5,1
  fe:	fef42423          	sw	a5,-24(s0)
 102:	fe842703          	lw	a4,-24(s0)
 106:	4789                	li	a5,2
 108:	fee7d2e3          	bge	a5,a4,ec <main+0xec>
 10c:	fec42783          	lw	a5,-20(s0)
 110:	078d                	add	a5,a5,3
 112:	fef42623          	sw	a5,-20(s0)
 116:	a00d                	j	138 <main+0x138>
 118:	15400713          	li	a4,340
 11c:	fec42783          	lw	a5,-20(s0)
 120:	97ba                	add	a5,a5,a4
 122:	0007c703          	lbu	a4,0(a5)
 126:	fe442783          	lw	a5,-28(s0)
 12a:	00e78023          	sb	a4,0(a5)
 12e:	fec42783          	lw	a5,-20(s0)
 132:	0785                	add	a5,a5,1
 134:	fef42623          	sw	a5,-20(s0)
 138:	6785                	lui	a5,0x1
 13a:	08a78793          	add	a5,a5,138 # 108a <image+0xf36>
 13e:	fec42703          	lw	a4,-20(s0)
 142:	f4f765e3          	bltu	a4,a5,8c <main+0x8c>
 146:	00000073          	ecall
 14a:	4781                	li	a5,0
 14c:	853e                	mv	a0,a5
 14e:	5432                	lw	s0,44(sp)
 150:	6145                	add	sp,sp,48
 152:	8082                	ret
