
fcmp.elf:     file format elf32-littleriscv


Disassembly of section .text.init:

00000000 <_start>:
   0:	0040006f          	j	4 <reset_vector>

00000004 <reset_vector>:
   4:	00000093          	li	ra,0
   8:	00000113          	li	sp,0
   c:	00000193          	li	gp,0
  10:	00000213          	li	tp,0
  14:	00000293          	li	t0,0
  18:	00000313          	li	t1,0
  1c:	00000393          	li	t2,0
  20:	00000413          	li	s0,0
  24:	00000493          	li	s1,0
  28:	00000513          	li	a0,0
  2c:	00000593          	li	a1,0
  30:	00000613          	li	a2,0
  34:	00000693          	li	a3,0
  38:	00000713          	li	a4,0
  3c:	00000793          	li	a5,0
  40:	00000813          	li	a6,0
  44:	00000893          	li	a7,0
  48:	00000913          	li	s2,0
  4c:	00000993          	li	s3,0
  50:	00000a13          	li	s4,0
  54:	00000a93          	li	s5,0
  58:	00000b13          	li	s6,0
  5c:	00000b93          	li	s7,0
  60:	00000c13          	li	s8,0
  64:	00000c93          	li	s9,0
  68:	00000d13          	li	s10,0
  6c:	00000d93          	li	s11,0
  70:	00000e13          	li	t3,0
  74:	00000e93          	li	t4,0
  78:	00000f13          	li	t5,0
  7c:	00000f93          	li	t6,0
  80:	00000193          	li	gp,0
  84:	00100513          	li	a0,1
  88:	01f51513          	sll	a0,a0,0x1f
  8c:	02054263          	bltz	a0,b0 <reset_vector+0xac>
  90:	0ff0000f          	fence
  94:	04f00513          	li	a0,79
  98:	fea00fa3          	sb	a0,-1(zero) # ffffffff <_end+0xffffcfff>
  9c:	06b00513          	li	a0,107
  a0:	fea00fa3          	sb	a0,-1(zero) # ffffffff <_end+0xffffcfff>
  a4:	00a00513          	li	a0,10
  a8:	fea00fa3          	sb	a0,-1(zero) # ffffffff <_end+0xffffcfff>
  ac:	00100193          	li	gp,1
  b0:	30005073          	csrw	mstatus,0
  b4:	00002537          	lui	a0,0x2
  b8:	30052073          	csrs	mstatus,a0
  bc:	00305073          	csrw	fcsr,0
  c0:	00000297          	auipc	t0,0x0
  c4:	01028293          	add	t0,t0,16 # d0 <test_2>
  c8:	34129073          	csrw	mepc,t0
  cc:	f1402573          	csrr	a0,mhartid

000000d0 <test_2>:
  d0:	00200193          	li	gp,2
  d4:	00002517          	auipc	a0,0x2
  d8:	f2c50513          	add	a0,a0,-212 # 2000 <test_2_data>
  dc:	00052e83          	lw	t4,0(a0)
  e0:	00452f03          	lw	t5,4(a0)
  e4:	00852f83          	lw	t6,8(a0)
  e8:	00c52683          	lw	a3,12(a0)
  ec:	a1eea553          	feq.s	a0,t4,t5
  f0:	001015f3          	fsflags	a1,zero
  f4:	00000613          	li	a2,0
  f8:	2ad51663          	bne	a0,a3,3a4 <fail>
  fc:	2ac59463          	bne	a1,a2,3a4 <fail>

00000100 <test_3>:
 100:	00300193          	li	gp,3
 104:	00002517          	auipc	a0,0x2
 108:	f0c50513          	add	a0,a0,-244 # 2010 <test_3_data>
 10c:	00052e83          	lw	t4,0(a0)
 110:	00452f03          	lw	t5,4(a0)
 114:	00852f83          	lw	t6,8(a0)
 118:	00c52683          	lw	a3,12(a0)
 11c:	a1ee8553          	fle.s	a0,t4,t5
 120:	001015f3          	fsflags	a1,zero
 124:	00000613          	li	a2,0
 128:	26d51e63          	bne	a0,a3,3a4 <fail>
 12c:	26c59c63          	bne	a1,a2,3a4 <fail>

00000130 <test_4>:
 130:	00400193          	li	gp,4
 134:	00002517          	auipc	a0,0x2
 138:	eec50513          	add	a0,a0,-276 # 2020 <test_4_data>
 13c:	00052e83          	lw	t4,0(a0)
 140:	00452f03          	lw	t5,4(a0)
 144:	00852f83          	lw	t6,8(a0)
 148:	00c52683          	lw	a3,12(a0)
 14c:	a1ee9553          	flt.s	a0,t4,t5
 150:	001015f3          	fsflags	a1,zero
 154:	00000613          	li	a2,0
 158:	24d51663          	bne	a0,a3,3a4 <fail>
 15c:	24c59463          	bne	a1,a2,3a4 <fail>

00000160 <test_5>:
 160:	00500193          	li	gp,5
 164:	00002517          	auipc	a0,0x2
 168:	ecc50513          	add	a0,a0,-308 # 2030 <test_5_data>
 16c:	00052e83          	lw	t4,0(a0)
 170:	00452f03          	lw	t5,4(a0)
 174:	00852f83          	lw	t6,8(a0)
 178:	00c52683          	lw	a3,12(a0)
 17c:	a1eea553          	feq.s	a0,t4,t5
 180:	001015f3          	fsflags	a1,zero
 184:	00000613          	li	a2,0
 188:	20d51e63          	bne	a0,a3,3a4 <fail>
 18c:	20c59c63          	bne	a1,a2,3a4 <fail>

00000190 <test_6>:
 190:	00600193          	li	gp,6
 194:	00002517          	auipc	a0,0x2
 198:	eac50513          	add	a0,a0,-340 # 2040 <test_6_data>
 19c:	00052e83          	lw	t4,0(a0)
 1a0:	00452f03          	lw	t5,4(a0)
 1a4:	00852f83          	lw	t6,8(a0)
 1a8:	00c52683          	lw	a3,12(a0)
 1ac:	a1ee8553          	fle.s	a0,t4,t5
 1b0:	001015f3          	fsflags	a1,zero
 1b4:	00000613          	li	a2,0
 1b8:	1ed51663          	bne	a0,a3,3a4 <fail>
 1bc:	1ec59463          	bne	a1,a2,3a4 <fail>

000001c0 <test_7>:
 1c0:	00700193          	li	gp,7
 1c4:	00002517          	auipc	a0,0x2
 1c8:	e8c50513          	add	a0,a0,-372 # 2050 <test_7_data>
 1cc:	00052e83          	lw	t4,0(a0)
 1d0:	00452f03          	lw	t5,4(a0)
 1d4:	00852f83          	lw	t6,8(a0)
 1d8:	00c52683          	lw	a3,12(a0)
 1dc:	a1ee9553          	flt.s	a0,t4,t5
 1e0:	001015f3          	fsflags	a1,zero
 1e4:	00000613          	li	a2,0
 1e8:	1ad51e63          	bne	a0,a3,3a4 <fail>
 1ec:	1ac59c63          	bne	a1,a2,3a4 <fail>

000001f0 <test_8>:
 1f0:	00800193          	li	gp,8
 1f4:	00002517          	auipc	a0,0x2
 1f8:	e6c50513          	add	a0,a0,-404 # 2060 <test_8_data>
 1fc:	00052e83          	lw	t4,0(a0)
 200:	00452f03          	lw	t5,4(a0)
 204:	00852f83          	lw	t6,8(a0)
 208:	00c52683          	lw	a3,12(a0)
 20c:	a1eea553          	feq.s	a0,t4,t5
 210:	001015f3          	fsflags	a1,zero
 214:	00000613          	li	a2,0
 218:	18d51663          	bne	a0,a3,3a4 <fail>
 21c:	18c59463          	bne	a1,a2,3a4 <fail>

00000220 <test_9>:
 220:	00900193          	li	gp,9
 224:	00002517          	auipc	a0,0x2
 228:	e4c50513          	add	a0,a0,-436 # 2070 <test_9_data>
 22c:	00052e83          	lw	t4,0(a0)
 230:	00452f03          	lw	t5,4(a0)
 234:	00852f83          	lw	t6,8(a0)
 238:	00c52683          	lw	a3,12(a0)
 23c:	a1eea553          	feq.s	a0,t4,t5
 240:	001015f3          	fsflags	a1,zero
 244:	00000613          	li	a2,0
 248:	14d51e63          	bne	a0,a3,3a4 <fail>
 24c:	14c59c63          	bne	a1,a2,3a4 <fail>

00000250 <test_10>:
 250:	00a00193          	li	gp,10
 254:	00002517          	auipc	a0,0x2
 258:	e2c50513          	add	a0,a0,-468 # 2080 <test_10_data>
 25c:	00052e83          	lw	t4,0(a0)
 260:	00452f03          	lw	t5,4(a0)
 264:	00852f83          	lw	t6,8(a0)
 268:	00c52683          	lw	a3,12(a0)
 26c:	a1eea553          	feq.s	a0,t4,t5
 270:	001015f3          	fsflags	a1,zero
 274:	01000613          	li	a2,16
 278:	12d51663          	bne	a0,a3,3a4 <fail>
 27c:	12c59463          	bne	a1,a2,3a4 <fail>

00000280 <test_11>:
 280:	00b00193          	li	gp,11
 284:	00002517          	auipc	a0,0x2
 288:	e0c50513          	add	a0,a0,-500 # 2090 <test_11_data>
 28c:	00052e83          	lw	t4,0(a0)
 290:	00452f03          	lw	t5,4(a0)
 294:	00852f83          	lw	t6,8(a0)
 298:	00c52683          	lw	a3,12(a0)
 29c:	a1ee9553          	flt.s	a0,t4,t5
 2a0:	001015f3          	fsflags	a1,zero
 2a4:	01000613          	li	a2,16
 2a8:	0ed51e63          	bne	a0,a3,3a4 <fail>
 2ac:	0ec59c63          	bne	a1,a2,3a4 <fail>

000002b0 <test_12>:
 2b0:	00c00193          	li	gp,12
 2b4:	00002517          	auipc	a0,0x2
 2b8:	dec50513          	add	a0,a0,-532 # 20a0 <test_12_data>
 2bc:	00052e83          	lw	t4,0(a0)
 2c0:	00452f03          	lw	t5,4(a0)
 2c4:	00852f83          	lw	t6,8(a0)
 2c8:	00c52683          	lw	a3,12(a0)
 2cc:	a1ee9553          	flt.s	a0,t4,t5
 2d0:	001015f3          	fsflags	a1,zero
 2d4:	01000613          	li	a2,16
 2d8:	0cd51663          	bne	a0,a3,3a4 <fail>
 2dc:	0cc59463          	bne	a1,a2,3a4 <fail>

000002e0 <test_13>:
 2e0:	00d00193          	li	gp,13
 2e4:	00002517          	auipc	a0,0x2
 2e8:	dcc50513          	add	a0,a0,-564 # 20b0 <test_13_data>
 2ec:	00052e83          	lw	t4,0(a0)
 2f0:	00452f03          	lw	t5,4(a0)
 2f4:	00852f83          	lw	t6,8(a0)
 2f8:	00c52683          	lw	a3,12(a0)
 2fc:	a1ee9553          	flt.s	a0,t4,t5
 300:	001015f3          	fsflags	a1,zero
 304:	01000613          	li	a2,16
 308:	08d51e63          	bne	a0,a3,3a4 <fail>
 30c:	08c59c63          	bne	a1,a2,3a4 <fail>

00000310 <test_14>:
 310:	00e00193          	li	gp,14
 314:	00002517          	auipc	a0,0x2
 318:	dac50513          	add	a0,a0,-596 # 20c0 <test_14_data>
 31c:	00052e83          	lw	t4,0(a0)
 320:	00452f03          	lw	t5,4(a0)
 324:	00852f83          	lw	t6,8(a0)
 328:	00c52683          	lw	a3,12(a0)
 32c:	a1ee8553          	fle.s	a0,t4,t5
 330:	001015f3          	fsflags	a1,zero
 334:	01000613          	li	a2,16
 338:	06d51663          	bne	a0,a3,3a4 <fail>
 33c:	06c59463          	bne	a1,a2,3a4 <fail>

00000340 <test_15>:
 340:	00f00193          	li	gp,15
 344:	00002517          	auipc	a0,0x2
 348:	d8c50513          	add	a0,a0,-628 # 20d0 <test_15_data>
 34c:	00052e83          	lw	t4,0(a0)
 350:	00452f03          	lw	t5,4(a0)
 354:	00852f83          	lw	t6,8(a0)
 358:	00c52683          	lw	a3,12(a0)
 35c:	a1ee8553          	fle.s	a0,t4,t5
 360:	001015f3          	fsflags	a1,zero
 364:	01000613          	li	a2,16
 368:	02d51e63          	bne	a0,a3,3a4 <fail>
 36c:	02c59c63          	bne	a1,a2,3a4 <fail>

00000370 <test_16>:
 370:	01000193          	li	gp,16
 374:	00002517          	auipc	a0,0x2
 378:	d6c50513          	add	a0,a0,-660 # 20e0 <test_16_data>
 37c:	00052e83          	lw	t4,0(a0)
 380:	00452f03          	lw	t5,4(a0)
 384:	00852f83          	lw	t6,8(a0)
 388:	00c52683          	lw	a3,12(a0)
 38c:	a1ee8553          	fle.s	a0,t4,t5
 390:	001015f3          	fsflags	a1,zero
 394:	01000613          	li	a2,16
 398:	00d51663          	bne	a0,a3,3a4 <fail>
 39c:	00c59463          	bne	a1,a2,3a4 <fail>
 3a0:	02301263          	bne	zero,gp,3c4 <pass>

000003a4 <fail>:
 3a4:	0ff0000f          	fence
 3a8:	04e00513          	li	a0,78
 3ac:	fea00fa3          	sb	a0,-1(zero) # ffffffff <_end+0xffffcfff>
 3b0:	06f00513          	li	a0,111
 3b4:	fea00fa3          	sb	a0,-1(zero) # ffffffff <_end+0xffffcfff>
 3b8:	00a00513          	li	a0,10
 3bc:	fea00fa3          	sb	a0,-1(zero) # ffffffff <_end+0xffffcfff>
 3c0:	c0001073          	unimp

000003c4 <pass>:
 3c4:	0ff0000f          	fence
 3c8:	04f00513          	li	a0,79
 3cc:	fea00fa3          	sb	a0,-1(zero) # ffffffff <_end+0xffffcfff>
 3d0:	06b00513          	li	a0,107
 3d4:	fea00fa3          	sb	a0,-1(zero) # ffffffff <_end+0xffffcfff>
 3d8:	00a00513          	li	a0,10
 3dc:	fea00fa3          	sb	a0,-1(zero) # ffffffff <_end+0xffffcfff>
 3e0:	00100193          	li	gp,1
 3e4:	c0001073          	unimp
 3e8:	c0001073          	unimp
	...
