
output.elf:     file format elf32-littleriscv


Disassembly of section .text:

00000000 <_start>:
   0:	00000093          	li	ra,0
   4:	00005137          	lui	sp,0x5
   8:	00000193          	li	gp,0
   c:	00000213          	li	tp,0
  10:	00000293          	li	t0,0
  14:	00000313          	li	t1,0
  18:	00000393          	li	t2,0
  1c:	00000413          	li	s0,0
  20:	00000493          	li	s1,0
  24:	00000513          	li	a0,0
  28:	00000593          	li	a1,0
  2c:	00000613          	li	a2,0
  30:	00000693          	li	a3,0
  34:	00000713          	li	a4,0
  38:	00000793          	li	a5,0
  3c:	00000813          	li	a6,0
  40:	00000893          	li	a7,0
  44:	00000913          	li	s2,0
  48:	00000993          	li	s3,0
  4c:	00000a13          	li	s4,0
  50:	00000a93          	li	s5,0
  54:	00000b13          	li	s6,0
  58:	00000b93          	li	s7,0
  5c:	00000c13          	li	s8,0
  60:	00000c93          	li	s9,0
  64:	00000d13          	li	s10,0
  68:	00000d93          	li	s11,0
  6c:	00000e13          	li	t3,0
  70:	00000e93          	li	t4,0
  74:	00000f13          	li	t5,0
  78:	00000f93          	li	t6,0
  7c:	00000193          	li	gp,0
  80:	00000513          	li	a0,0
  84:	02d000ef          	jal	8b0 <main>
  88:	c0001073          	unimp

0000008c <compare>:
  8c:	00052503          	lw	a0,0(a0)
  90:	0005a783          	lw	a5,0(a1)
  94:	40f50533          	sub	a0,a0,a5
  98:	00008067          	ret

0000009c <qsort>:
  9c:	ffc60793          	add	a5,a2,-4
  a0:	fa010113          	add	sp,sp,-96 # 4fa0 <main+0x46f0>
  a4:	00f037b3          	snez	a5,a5
  a8:	05212823          	sw	s2,80(sp)
  ac:	05312623          	sw	s3,76(sp)
  b0:	05412423          	sw	s4,72(sp)
  b4:	03812c23          	sw	s8,56(sp)
  b8:	04112e23          	sw	ra,92(sp)
  bc:	04812c23          	sw	s0,88(sp)
  c0:	04912a23          	sw	s1,84(sp)
  c4:	05512223          	sw	s5,68(sp)
  c8:	05612023          	sw	s6,64(sp)
  cc:	03712e23          	sw	s7,60(sp)
  d0:	03912a23          	sw	s9,52(sp)
  d4:	03a12823          	sw	s10,48(sp)
  d8:	03b12623          	sw	s11,44(sp)
  dc:	00060c13          	mv	s8,a2
  e0:	00050993          	mv	s3,a0
  e4:	00068a13          	mv	s4,a3
  e8:	00f12e23          	sw	a5,28(sp)
  ec:	40c00933          	neg	s2,a2
  f0:	0189e7b3          	or	a5,s3,s8
  f4:	0037f793          	and	a5,a5,3
  f8:	00200a93          	li	s5,2
  fc:	00079463          	bnez	a5,104 <qsort+0x68>
 100:	01c12a83          	lw	s5,28(sp)
 104:	00600793          	li	a5,6
 108:	6ab7f863          	bgeu	a5,a1,7b8 <qsort+0x71c>
 10c:	0015d713          	srl	a4,a1,0x1
 110:	fff58c93          	add	s9,a1,-1
 114:	03870733          	mul	a4,a4,s8
 118:	00700693          	li	a3,7
 11c:	038c8cb3          	mul	s9,s9,s8
 120:	00e98d33          	add	s10,s3,a4
 124:	01998db3          	add	s11,s3,s9
 128:	02d58a63          	beq	a1,a3,15c <qsort+0xc0>
 12c:	02800693          	li	a3,40
 130:	000d8413          	mv	s0,s11
 134:	00098493          	mv	s1,s3
 138:	4eb6e863          	bltu	a3,a1,628 <qsort+0x58c>
 13c:	000d0593          	mv	a1,s10
 140:	00048513          	mv	a0,s1
 144:	000a00e7          	jalr	s4
 148:	00040593          	mv	a1,s0
 14c:	4a054c63          	bltz	a0,604 <qsort+0x568>
 150:	000d0513          	mv	a0,s10
 154:	000a00e7          	jalr	s4
 158:	0aa05c63          	blez	a0,210 <qsort+0x174>
 15c:	0c0a8663          	beqz	s5,228 <qsort+0x18c>
 160:	018987b3          	add	a5,s3,s8
 164:	00100613          	li	a2,1
 168:	00f12823          	sw	a5,16(sp)
 16c:	00098693          	mv	a3,s3
 170:	56ca8063          	beq	s5,a2,6d0 <qsort+0x634>
 174:	000d4583          	lbu	a1,0(s10)
 178:	0006c603          	lbu	a2,0(a3)
 17c:	01012783          	lw	a5,16(sp)
 180:	00168693          	add	a3,a3,1
 184:	001d0d13          	add	s10,s10,1
 188:	feb68fa3          	sb	a1,-1(a3)
 18c:	fecd0fa3          	sb	a2,-1(s10)
 190:	40d78633          	sub	a2,a5,a3
 194:	fec040e3          	bgtz	a2,174 <qsort+0xd8>
 198:	01012783          	lw	a5,16(sp)
 19c:	000d8493          	mv	s1,s11
 1a0:	00000b93          	li	s7,0
 1a4:	01878d33          	add	s10,a5,s8
 1a8:	01a12c23          	sw	s10,24(sp)
 1ac:	00f12a23          	sw	a5,20(sp)
 1b0:	00078413          	mv	s0,a5
 1b4:	00f12623          	sw	a5,12(sp)
 1b8:	00040b13          	mv	s6,s0
 1bc:	188df063          	bgeu	s11,s0,33c <qsort+0x2a0>
 1c0:	018c8cb3          	add	s9,s9,s8
 1c4:	01998cb3          	add	s9,s3,s9
 1c8:	320b8063          	beqz	s7,4e8 <qsort+0x44c>
 1cc:	00c12783          	lw	a5,12(sp)
 1d0:	40f405b3          	sub	a1,s0,a5
 1d4:	41378733          	sub	a4,a5,s3
 1d8:	00e5d463          	bge	a1,a4,1e0 <qsort+0x144>
 1dc:	00058713          	mv	a4,a1
 1e0:	3c071863          	bnez	a4,5b0 <qsort+0x514>
 1e4:	409c8733          	sub	a4,s9,s1
 1e8:	41870733          	sub	a4,a4,s8
 1ec:	41b484b3          	sub	s1,s1,s11
 1f0:	00e4f463          	bgeu	s1,a4,1f8 <qsort+0x15c>
 1f4:	00048713          	mv	a4,s1
 1f8:	0a071063          	bnez	a4,298 <qsort+0x1fc>
 1fc:	04bc6463          	bltu	s8,a1,244 <qsort+0x1a8>
 200:	049c7e63          	bgeu	s8,s1,25c <qsort+0x1c0>
 204:	0384d5b3          	divu	a1,s1,s8
 208:	409c89b3          	sub	s3,s9,s1
 20c:	ee5ff06f          	j	f0 <qsort+0x54>
 210:	00040593          	mv	a1,s0
 214:	00048513          	mv	a0,s1
 218:	000a00e7          	jalr	s4
 21c:	40054263          	bltz	a0,620 <qsort+0x584>
 220:	00040d13          	mv	s10,s0
 224:	f20a9ee3          	bnez	s5,160 <qsort+0xc4>
 228:	000d2603          	lw	a2,0(s10)
 22c:	0009a683          	lw	a3,0(s3)
 230:	018987b3          	add	a5,s3,s8
 234:	00c9a023          	sw	a2,0(s3)
 238:	00f12823          	sw	a5,16(sp)
 23c:	00dd2023          	sw	a3,0(s10)
 240:	f59ff06f          	j	198 <qsort+0xfc>
 244:	0385d5b3          	divu	a1,a1,s8
 248:	000a0693          	mv	a3,s4
 24c:	000c0613          	mv	a2,s8
 250:	00098513          	mv	a0,s3
 254:	e49ff0ef          	jal	9c <qsort>
 258:	fa9c66e3          	bltu	s8,s1,204 <qsort+0x168>
 25c:	05c12083          	lw	ra,92(sp)
 260:	05812403          	lw	s0,88(sp)
 264:	05412483          	lw	s1,84(sp)
 268:	05012903          	lw	s2,80(sp)
 26c:	04c12983          	lw	s3,76(sp)
 270:	04812a03          	lw	s4,72(sp)
 274:	04412a83          	lw	s5,68(sp)
 278:	04012b03          	lw	s6,64(sp)
 27c:	03c12b83          	lw	s7,60(sp)
 280:	03812c03          	lw	s8,56(sp)
 284:	03412c83          	lw	s9,52(sp)
 288:	03012d03          	lw	s10,48(sp)
 28c:	02c12d83          	lw	s11,44(sp)
 290:	06010113          	add	sp,sp,96
 294:	00008067          	ret
 298:	00200793          	li	a5,2
 29c:	40ec86b3          	sub	a3,s9,a4
 2a0:	06fa9863          	bne	s5,a5,310 <qsort+0x274>
 2a4:	00e40733          	add	a4,s0,a4
 2a8:	0006c603          	lbu	a2,0(a3)
 2ac:	000b4783          	lbu	a5,0(s6)
 2b0:	00168693          	add	a3,a3,1
 2b4:	001b0b13          	add	s6,s6,1
 2b8:	fecb0fa3          	sb	a2,-1(s6)
 2bc:	fef68fa3          	sb	a5,-1(a3)
 2c0:	416707b3          	sub	a5,a4,s6
 2c4:	fef042e3          	bgtz	a5,2a8 <qsort+0x20c>
 2c8:	f2bc7ce3          	bgeu	s8,a1,200 <qsort+0x164>
 2cc:	f79ff06f          	j	244 <qsort+0x1a8>
 2d0:	00275713          	srl	a4,a4,0x2
 2d4:	0006a803          	lw	a6,0(a3)
 2d8:	00062503          	lw	a0,0(a2)
 2dc:	00468693          	add	a3,a3,4
 2e0:	01062023          	sw	a6,0(a2)
 2e4:	fff70713          	add	a4,a4,-1
 2e8:	fea6ae23          	sw	a0,-4(a3)
 2ec:	00460613          	add	a2,a2,4
 2f0:	fee042e3          	bgtz	a4,2d4 <qsort+0x238>
 2f4:	409c8733          	sub	a4,s9,s1
 2f8:	41870733          	sub	a4,a4,s8
 2fc:	41b484b3          	sub	s1,s1,s11
 300:	00e4f463          	bgeu	s1,a4,308 <qsort+0x26c>
 304:	00048713          	mv	a4,s1
 308:	ee070ae3          	beqz	a4,1fc <qsort+0x160>
 30c:	40ec86b3          	sub	a3,s9,a4
 310:	00275713          	srl	a4,a4,0x2
 314:	0006a603          	lw	a2,0(a3)
 318:	000b2783          	lw	a5,0(s6)
 31c:	00468693          	add	a3,a3,4
 320:	00cb2023          	sw	a2,0(s6)
 324:	fff70713          	add	a4,a4,-1
 328:	fef6ae23          	sw	a5,-4(a3)
 32c:	004b0b13          	add	s6,s6,4
 330:	fee042e3          	bgtz	a4,314 <qsort+0x278>
 334:	ecbc76e3          	bgeu	s8,a1,200 <qsort+0x164>
 338:	f0dff06f          	j	244 <qsort+0x1a8>
 33c:	00098593          	mv	a1,s3
 340:	00040513          	mv	a0,s0
 344:	000a00e7          	jalr	s4
 348:	10a05663          	blez	a0,454 <qsort+0x3b8>
 34c:	00098593          	mv	a1,s3
 350:	000d8513          	mv	a0,s11
 354:	000a00e7          	jalr	s4
 358:	06054063          	bltz	a0,3b8 <qsort+0x31c>
 35c:	04051263          	bnez	a0,3a0 <qsort+0x304>
 360:	080a8e63          	beqz	s5,3fc <qsort+0x360>
 364:	00100793          	li	a5,1
 368:	0afa8e63          	beq	s5,a5,424 <qsort+0x388>
 36c:	00048693          	mv	a3,s1
 370:	000d8713          	mv	a4,s11
 374:	018d8533          	add	a0,s11,s8
 378:	0006c583          	lbu	a1,0(a3)
 37c:	00074603          	lbu	a2,0(a4)
 380:	00168693          	add	a3,a3,1
 384:	00170713          	add	a4,a4,1
 388:	feb70fa3          	sb	a1,-1(a4)
 38c:	fec68fa3          	sb	a2,-1(a3)
 390:	40e50633          	sub	a2,a0,a4
 394:	fec042e3          	bgtz	a2,378 <qsort+0x2dc>
 398:	012484b3          	add	s1,s1,s2
 39c:	00100b93          	li	s7,1
 3a0:	012d8db3          	add	s11,s11,s2
 3a4:	e08deee3          	bltu	s11,s0,1c0 <qsort+0x124>
 3a8:	00098593          	mv	a1,s3
 3ac:	000d8513          	mv	a0,s11
 3b0:	000a00e7          	jalr	s4
 3b4:	fa0554e3          	bgez	a0,35c <qsort+0x2c0>
 3b8:	040a8c63          	beqz	s5,410 <qsort+0x374>
 3bc:	00100793          	li	a5,1
 3c0:	000d8713          	mv	a4,s11
 3c4:	0efa8e63          	beq	s5,a5,4c0 <qsort+0x424>
 3c8:	00074603          	lbu	a2,0(a4)
 3cc:	000b4683          	lbu	a3,0(s6)
 3d0:	00170713          	add	a4,a4,1
 3d4:	001b0b13          	add	s6,s6,1
 3d8:	fecb0fa3          	sb	a2,-1(s6)
 3dc:	fed70fa3          	sb	a3,-1(a4)
 3e0:	416d06b3          	sub	a3,s10,s6
 3e4:	fed042e3          	bgtz	a3,3c8 <qsort+0x32c>
 3e8:	012d8db3          	add	s11,s11,s2
 3ec:	00100b93          	li	s7,1
 3f0:	01840433          	add	s0,s0,s8
 3f4:	018d0d33          	add	s10,s10,s8
 3f8:	dc1ff06f          	j	1b8 <qsort+0x11c>
 3fc:	0004a683          	lw	a3,0(s1)
 400:	000da703          	lw	a4,0(s11)
 404:	00dda023          	sw	a3,0(s11)
 408:	00e4a023          	sw	a4,0(s1)
 40c:	f8dff06f          	j	398 <qsort+0x2fc>
 410:	000da683          	lw	a3,0(s11)
 414:	00042703          	lw	a4,0(s0)
 418:	00d42023          	sw	a3,0(s0)
 41c:	00eda023          	sw	a4,0(s11)
 420:	fc9ff06f          	j	3e8 <qsort+0x34c>
 424:	002c5613          	srl	a2,s8,0x2
 428:	00048693          	mv	a3,s1
 42c:	000d8713          	mv	a4,s11
 430:	0006a503          	lw	a0,0(a3)
 434:	00072583          	lw	a1,0(a4)
 438:	00468693          	add	a3,a3,4
 43c:	00a72023          	sw	a0,0(a4)
 440:	fff60613          	add	a2,a2,-1
 444:	feb6ae23          	sw	a1,-4(a3)
 448:	00470713          	add	a4,a4,4
 44c:	fec042e3          	bgtz	a2,430 <qsort+0x394>
 450:	f49ff06f          	j	398 <qsort+0x2fc>
 454:	f8051ee3          	bnez	a0,3f0 <qsort+0x354>
 458:	040a8263          	beqz	s5,49c <qsort+0x400>
 45c:	00c12783          	lw	a5,12(sp)
 460:	00100613          	li	a2,1
 464:	00078713          	mv	a4,a5
 468:	018786b3          	add	a3,a5,s8
 46c:	40ca8663          	beq	s5,a2,878 <qsort+0x7dc>
 470:	000b4583          	lbu	a1,0(s6)
 474:	00074603          	lbu	a2,0(a4)
 478:	001b0b13          	add	s6,s6,1
 47c:	00170713          	add	a4,a4,1
 480:	feb70fa3          	sb	a1,-1(a4)
 484:	fecb0fa3          	sb	a2,-1(s6)
 488:	40e68633          	sub	a2,a3,a4
 48c:	fec042e3          	bgtz	a2,470 <qsort+0x3d4>
 490:	00d12623          	sw	a3,12(sp)
 494:	00100b93          	li	s7,1
 498:	f59ff06f          	j	3f0 <qsort+0x354>
 49c:	00c12783          	lw	a5,12(sp)
 4a0:	00042603          	lw	a2,0(s0)
 4a4:	00100b93          	li	s7,1
 4a8:	0007a703          	lw	a4,0(a5)
 4ac:	018786b3          	add	a3,a5,s8
 4b0:	00c7a023          	sw	a2,0(a5)
 4b4:	00e42023          	sw	a4,0(s0)
 4b8:	00d12623          	sw	a3,12(sp)
 4bc:	f35ff06f          	j	3f0 <qsort+0x354>
 4c0:	002c5693          	srl	a3,s8,0x2
 4c4:	00072583          	lw	a1,0(a4)
 4c8:	000b2603          	lw	a2,0(s6)
 4cc:	00470713          	add	a4,a4,4
 4d0:	00bb2023          	sw	a1,0(s6)
 4d4:	fff68693          	add	a3,a3,-1
 4d8:	fec72e23          	sw	a2,-4(a4)
 4dc:	004b0b13          	add	s6,s6,4
 4e0:	fed042e3          	bgtz	a3,4c4 <qsort+0x428>
 4e4:	f05ff06f          	j	3e8 <qsort+0x34c>
 4e8:	01012783          	lw	a5,16(sp)
 4ec:	418004b3          	neg	s1,s8
 4f0:	00100b13          	li	s6,1
 4f4:	001c1913          	sll	s2,s8,0x1
 4f8:	d797f2e3          	bgeu	a5,s9,25c <qsort+0x1c0>
 4fc:	01412783          	lw	a5,20(sp)
 500:	04f9fa63          	bgeu	s3,a5,554 <qsort+0x4b8>
 504:	00078b93          	mv	s7,a5
 508:	000b8413          	mv	s0,s7
 50c:	009b8bb3          	add	s7,s7,s1
 510:	00040593          	mv	a1,s0
 514:	000b8513          	mv	a0,s7
 518:	000a00e7          	jalr	s4
 51c:	02a05c63          	blez	a0,554 <qsort+0x4b8>
 520:	040a8663          	beqz	s5,56c <qsort+0x4d0>
 524:	000b8793          	mv	a5,s7
 528:	012b8633          	add	a2,s7,s2
 52c:	056a8c63          	beq	s5,s6,584 <qsort+0x4e8>
 530:	0007c683          	lbu	a3,0(a5)
 534:	00044703          	lbu	a4,0(s0)
 538:	00178793          	add	a5,a5,1
 53c:	00140413          	add	s0,s0,1
 540:	fed40fa3          	sb	a3,-1(s0)
 544:	fee78fa3          	sb	a4,-1(a5)
 548:	40860733          	sub	a4,a2,s0
 54c:	fee042e3          	bgtz	a4,530 <qsort+0x494>
 550:	fb79ece3          	bltu	s3,s7,508 <qsort+0x46c>
 554:	01812783          	lw	a5,24(sp)
 558:	00f12a23          	sw	a5,20(sp)
 55c:	d197f0e3          	bgeu	a5,s9,25c <qsort+0x1c0>
 560:	018787b3          	add	a5,a5,s8
 564:	00f12c23          	sw	a5,24(sp)
 568:	f95ff06f          	j	4fc <qsort+0x460>
 56c:	000ba703          	lw	a4,0(s7)
 570:	00042783          	lw	a5,0(s0)
 574:	00e42023          	sw	a4,0(s0)
 578:	00fba023          	sw	a5,0(s7)
 57c:	f979e6e3          	bltu	s3,s7,508 <qsort+0x46c>
 580:	fd5ff06f          	j	554 <qsort+0x4b8>
 584:	002c5713          	srl	a4,s8,0x2
 588:	0007a603          	lw	a2,0(a5)
 58c:	00042683          	lw	a3,0(s0)
 590:	00478793          	add	a5,a5,4
 594:	00c42023          	sw	a2,0(s0)
 598:	fff70713          	add	a4,a4,-1
 59c:	fed7ae23          	sw	a3,-4(a5)
 5a0:	00440413          	add	s0,s0,4
 5a4:	fee042e3          	bgtz	a4,588 <qsort+0x4ec>
 5a8:	f779e0e3          	bltu	s3,s7,508 <qsort+0x46c>
 5ac:	fa9ff06f          	j	554 <qsort+0x4b8>
 5b0:	00200793          	li	a5,2
 5b4:	40e406b3          	sub	a3,s0,a4
 5b8:	00098613          	mv	a2,s3
 5bc:	00e98833          	add	a6,s3,a4
 5c0:	d0fa98e3          	bne	s5,a5,2d0 <qsort+0x234>
 5c4:	0006c503          	lbu	a0,0(a3)
 5c8:	00064703          	lbu	a4,0(a2)
 5cc:	00168693          	add	a3,a3,1
 5d0:	00160613          	add	a2,a2,1
 5d4:	fea60fa3          	sb	a0,-1(a2)
 5d8:	fee68fa3          	sb	a4,-1(a3)
 5dc:	40c80733          	sub	a4,a6,a2
 5e0:	fee042e3          	bgtz	a4,5c4 <qsort+0x528>
 5e4:	409c8733          	sub	a4,s9,s1
 5e8:	41870733          	sub	a4,a4,s8
 5ec:	41b484b3          	sub	s1,s1,s11
 5f0:	00e4f463          	bgeu	s1,a4,5f8 <qsort+0x55c>
 5f4:	00048713          	mv	a4,s1
 5f8:	c00702e3          	beqz	a4,1fc <qsort+0x160>
 5fc:	40ec86b3          	sub	a3,s9,a4
 600:	ca5ff06f          	j	2a4 <qsort+0x208>
 604:	000d0513          	mv	a0,s10
 608:	000a00e7          	jalr	s4
 60c:	b40548e3          	bltz	a0,15c <qsort+0xc0>
 610:	00040593          	mv	a1,s0
 614:	00048513          	mv	a0,s1
 618:	000a00e7          	jalr	s4
 61c:	c00542e3          	bltz	a0,220 <qsort+0x184>
 620:	00048d13          	mv	s10,s1
 624:	b39ff06f          	j	15c <qsort+0xc0>
 628:	0035d593          	srl	a1,a1,0x3
 62c:	03858433          	mul	s0,a1,s8
 630:	00098513          	mv	a0,s3
 634:	008984b3          	add	s1,s3,s0
 638:	00048593          	mv	a1,s1
 63c:	00141793          	sll	a5,s0,0x1
 640:	00f12623          	sw	a5,12(sp)
 644:	000a00e7          	jalr	s4
 648:	21342b33          	sh1add	s6,s0,s3
 64c:	000b0593          	mv	a1,s6
 650:	10054e63          	bltz	a0,76c <qsort+0x6d0>
 654:	00048513          	mv	a0,s1
 658:	000a00e7          	jalr	s4
 65c:	0aa05e63          	blez	a0,718 <qsort+0x67c>
 660:	408d0b33          	sub	s6,s10,s0
 664:	000d0593          	mv	a1,s10
 668:	000b0513          	mv	a0,s6
 66c:	008d0bb3          	add	s7,s10,s0
 670:	000a00e7          	jalr	s4
 674:	000b8593          	mv	a1,s7
 678:	0c054863          	bltz	a0,748 <qsort+0x6ac>
 67c:	000d0513          	mv	a0,s10
 680:	000a00e7          	jalr	s4
 684:	06a05e63          	blez	a0,700 <qsort+0x664>
 688:	00141793          	sll	a5,s0,0x1
 68c:	40fd8b33          	sub	s6,s11,a5
 690:	008b0433          	add	s0,s6,s0
 694:	00040593          	mv	a1,s0
 698:	000b0513          	mv	a0,s6
 69c:	000a00e7          	jalr	s4
 6a0:	000d8593          	mv	a1,s11
 6a4:	0e054663          	bltz	a0,790 <qsort+0x6f4>
 6a8:	00040513          	mv	a0,s0
 6ac:	000a00e7          	jalr	s4
 6b0:	a8a046e3          	bgtz	a0,13c <qsort+0xa0>
 6b4:	000d8593          	mv	a1,s11
 6b8:	000b0513          	mv	a0,s6
 6bc:	000a00e7          	jalr	s4
 6c0:	000b0413          	mv	s0,s6
 6c4:	a6054ce3          	bltz	a0,13c <qsort+0xa0>
 6c8:	000d8413          	mv	s0,s11
 6cc:	a71ff06f          	j	13c <qsort+0xa0>
 6d0:	002c5613          	srl	a2,s8,0x2
 6d4:	000d2503          	lw	a0,0(s10)
 6d8:	0006a583          	lw	a1,0(a3)
 6dc:	004d0d13          	add	s10,s10,4
 6e0:	00a6a023          	sw	a0,0(a3)
 6e4:	fff60613          	add	a2,a2,-1
 6e8:	febd2e23          	sw	a1,-4(s10)
 6ec:	00468693          	add	a3,a3,4
 6f0:	fec042e3          	bgtz	a2,6d4 <qsort+0x638>
 6f4:	018987b3          	add	a5,s3,s8
 6f8:	00f12823          	sw	a5,16(sp)
 6fc:	a9dff06f          	j	198 <qsort+0xfc>
 700:	000b8593          	mv	a1,s7
 704:	000b0513          	mv	a0,s6
 708:	000a00e7          	jalr	s4
 70c:	04054c63          	bltz	a0,764 <qsort+0x6c8>
 710:	000b8d13          	mv	s10,s7
 714:	f75ff06f          	j	688 <qsort+0x5ec>
 718:	000b0593          	mv	a1,s6
 71c:	00098513          	mv	a0,s3
 720:	000a00e7          	jalr	s4
 724:	06054263          	bltz	a0,788 <qsort+0x6ec>
 728:	000b0493          	mv	s1,s6
 72c:	408d0b33          	sub	s6,s10,s0
 730:	000d0593          	mv	a1,s10
 734:	000b0513          	mv	a0,s6
 738:	008d0bb3          	add	s7,s10,s0
 73c:	000a00e7          	jalr	s4
 740:	000b8593          	mv	a1,s7
 744:	f2055ce3          	bgez	a0,67c <qsort+0x5e0>
 748:	000d0513          	mv	a0,s10
 74c:	000a00e7          	jalr	s4
 750:	f2054ce3          	bltz	a0,688 <qsort+0x5ec>
 754:	000b8593          	mv	a1,s7
 758:	000b0513          	mv	a0,s6
 75c:	000a00e7          	jalr	s4
 760:	fa0548e3          	bltz	a0,710 <qsort+0x674>
 764:	000b0d13          	mv	s10,s6
 768:	f21ff06f          	j	688 <qsort+0x5ec>
 76c:	00048513          	mv	a0,s1
 770:	000a00e7          	jalr	s4
 774:	ee0546e3          	bltz	a0,660 <qsort+0x5c4>
 778:	000b0593          	mv	a1,s6
 77c:	00098513          	mv	a0,s3
 780:	000a00e7          	jalr	s4
 784:	fa0542e3          	bltz	a0,728 <qsort+0x68c>
 788:	00098493          	mv	s1,s3
 78c:	ed5ff06f          	j	660 <qsort+0x5c4>
 790:	00040513          	mv	a0,s0
 794:	000a00e7          	jalr	s4
 798:	9a0542e3          	bltz	a0,13c <qsort+0xa0>
 79c:	000d8593          	mv	a1,s11
 7a0:	000b0513          	mv	a0,s6
 7a4:	000a00e7          	jalr	s4
 7a8:	000b0413          	mv	s0,s6
 7ac:	980558e3          	bgez	a0,13c <qsort+0xa0>
 7b0:	000d8413          	mv	s0,s11
 7b4:	989ff06f          	j	13c <qsort+0xa0>
 7b8:	038585b3          	mul	a1,a1,s8
 7bc:	01898bb3          	add	s7,s3,s8
 7c0:	41800b33          	neg	s6,s8
 7c4:	00100d13          	li	s10,1
 7c8:	001c1c93          	sll	s9,s8,0x1
 7cc:	00b98933          	add	s2,s3,a1
 7d0:	a92bf6e3          	bgeu	s7,s2,25c <qsort+0x1c0>
 7d4:	0579fa63          	bgeu	s3,s7,828 <qsort+0x78c>
 7d8:	000b8493          	mv	s1,s7
 7dc:	00048413          	mv	s0,s1
 7e0:	016484b3          	add	s1,s1,s6
 7e4:	00040593          	mv	a1,s0
 7e8:	00048513          	mv	a0,s1
 7ec:	000a00e7          	jalr	s4
 7f0:	02a05c63          	blez	a0,828 <qsort+0x78c>
 7f4:	040a8063          	beqz	s5,834 <qsort+0x798>
 7f8:	00048793          	mv	a5,s1
 7fc:	01948633          	add	a2,s1,s9
 800:	05aa8663          	beq	s5,s10,84c <qsort+0x7b0>
 804:	0007c683          	lbu	a3,0(a5)
 808:	00044703          	lbu	a4,0(s0)
 80c:	00178793          	add	a5,a5,1
 810:	00140413          	add	s0,s0,1
 814:	fed40fa3          	sb	a3,-1(s0)
 818:	fee78fa3          	sb	a4,-1(a5)
 81c:	40860733          	sub	a4,a2,s0
 820:	fee042e3          	bgtz	a4,804 <qsort+0x768>
 824:	fa99ece3          	bltu	s3,s1,7dc <qsort+0x740>
 828:	018b8bb3          	add	s7,s7,s8
 82c:	fb2be4e3          	bltu	s7,s2,7d4 <qsort+0x738>
 830:	a2dff06f          	j	25c <qsort+0x1c0>
 834:	0004a703          	lw	a4,0(s1)
 838:	00042783          	lw	a5,0(s0)
 83c:	00e42023          	sw	a4,0(s0)
 840:	00f4a023          	sw	a5,0(s1)
 844:	f899ece3          	bltu	s3,s1,7dc <qsort+0x740>
 848:	fe1ff06f          	j	828 <qsort+0x78c>
 84c:	002c5713          	srl	a4,s8,0x2
 850:	0007a603          	lw	a2,0(a5)
 854:	00042683          	lw	a3,0(s0)
 858:	00478793          	add	a5,a5,4
 85c:	00c42023          	sw	a2,0(s0)
 860:	fff70713          	add	a4,a4,-1
 864:	fed7ae23          	sw	a3,-4(a5)
 868:	00440413          	add	s0,s0,4
 86c:	fee042e3          	bgtz	a4,850 <qsort+0x7b4>
 870:	f699e6e3          	bltu	s3,s1,7dc <qsort+0x740>
 874:	fb5ff06f          	j	828 <qsort+0x78c>
 878:	002c5693          	srl	a3,s8,0x2
 87c:	000b2583          	lw	a1,0(s6)
 880:	00072603          	lw	a2,0(a4)
 884:	004b0b13          	add	s6,s6,4
 888:	00b72023          	sw	a1,0(a4)
 88c:	fff68693          	add	a3,a3,-1
 890:	fecb2e23          	sw	a2,-4(s6)
 894:	00470713          	add	a4,a4,4
 898:	fed042e3          	bgtz	a3,87c <qsort+0x7e0>
 89c:	00c12783          	lw	a5,12(sp)
 8a0:	00100b93          	li	s7,1
 8a4:	018786b3          	add	a3,a5,s8
 8a8:	00d12623          	sw	a3,12(sp)
 8ac:	b45ff06f          	j	3f0 <qsort+0x354>

Disassembly of section .text.startup:

000008b0 <main>:
 8b0:	00001737          	lui	a4,0x1
 8b4:	fffff6b7          	lui	a3,0xfffff
 8b8:	81010113          	add	sp,sp,-2032
 8bc:	06068693          	add	a3,a3,96 # fffff060 <main+0xffffe7b0>
 8c0:	fa070793          	add	a5,a4,-96 # fa0 <main+0x6f0>
 8c4:	fa070613          	add	a2,a4,-96
 8c8:	7e112623          	sw	ra,2028(sp)
 8cc:	7e812423          	sw	s0,2024(sp)
 8d0:	00d787b3          	add	a5,a5,a3
 8d4:	84010113          	add	sp,sp,-1984
 8d8:	002786b3          	add	a3,a5,sp
 8dc:	00260633          	add	a2,a2,sp
 8e0:	00100713          	li	a4,1
 8e4:	00d71793          	sll	a5,a4,0xd
 8e8:	40e787b3          	sub	a5,a5,a4
 8ec:	00e6a023          	sw	a4,0(a3)
 8f0:	00779793          	sll	a5,a5,0x7
 8f4:	00468693          	add	a3,a3,4
 8f8:	00f74733          	xor	a4,a4,a5
 8fc:	fec694e3          	bne	a3,a2,8e4 <main+0x34>
 900:	fffff437          	lui	s0,0xfffff
 904:	000017b7          	lui	a5,0x1
 908:	06040413          	add	s0,s0,96 # fffff060 <main+0xffffe7b0>
 90c:	fa078793          	add	a5,a5,-96 # fa0 <main+0x6f0>
 910:	008787b3          	add	a5,a5,s0
 914:	00278433          	add	s0,a5,sp
 918:	00040513          	mv	a0,s0
 91c:	08c00693          	li	a3,140
 920:	00400613          	li	a2,4
 924:	3e800593          	li	a1,1000
 928:	f74ff0ef          	jal	9c <qsort>
 92c:	0ff47793          	zext.b	a5,s0
 930:	40845713          	sra	a4,s0,0x8
 934:	fef00fa3          	sb	a5,-1(zero) # ffffffff <main+0xfffff74f>
 938:	0ff77713          	zext.b	a4,a4
 93c:	41045793          	sra	a5,s0,0x10
 940:	fee00fa3          	sb	a4,-1(zero) # ffffffff <main+0xfffff74f>
 944:	0ff7f793          	zext.b	a5,a5
 948:	fef00fa3          	sb	a5,-1(zero) # ffffffff <main+0xfffff74f>
 94c:	01845413          	srl	s0,s0,0x18
 950:	fe800fa3          	sb	s0,-1(zero) # ffffffff <main+0xfffff74f>
 954:	7c010113          	add	sp,sp,1984
 958:	7ec12083          	lw	ra,2028(sp)
 95c:	7e812403          	lw	s0,2024(sp)
 960:	00000513          	li	a0,0
 964:	7f010113          	add	sp,sp,2032
 968:	00008067          	ret
