
csr.elf:     file format elf32-littleriscv


Disassembly of section .text.init:

00000000 <_start>:
   0:	0040006f          	j	4 <reset_vector>

00000004 <reset_vector>:
   4:	00000093          	li	ra,0
   8:	00000113          	li	sp,0
   c:	00000193          	li	gp,0
  10:	00000213          	li	tp,0
  14:	00000293          	li	t0,0
  18:	00000313          	li	t1,0
  1c:	00000393          	li	t2,0
  20:	00000413          	li	s0,0
  24:	00000493          	li	s1,0
  28:	00000513          	li	a0,0
  2c:	00000593          	li	a1,0
  30:	00000613          	li	a2,0
  34:	00000693          	li	a3,0
  38:	00000713          	li	a4,0
  3c:	00000793          	li	a5,0
  40:	00000813          	li	a6,0
  44:	00000893          	li	a7,0
  48:	00000913          	li	s2,0
  4c:	00000993          	li	s3,0
  50:	00000a13          	li	s4,0
  54:	00000a93          	li	s5,0
  58:	00000b13          	li	s6,0
  5c:	00000b93          	li	s7,0
  60:	00000c13          	li	s8,0
  64:	00000c93          	li	s9,0
  68:	00000d13          	li	s10,0
  6c:	00000d93          	li	s11,0
  70:	00000e13          	li	t3,0
  74:	00000e93          	li	t4,0
  78:	00000f13          	li	t5,0
  7c:	00000f93          	li	t6,0
  80:	00000193          	li	gp,0
  84:	00100513          	li	a0,1
  88:	01f51513          	sll	a0,a0,0x1f
  8c:	02054263          	bltz	a0,b0 <reset_vector+0xac>
  90:	0ff0000f          	fence
  94:	04f00513          	li	a0,79
  98:	fea00fa3          	sb	a0,-1(zero) # ffffffff <_end+0xffffefff>
  9c:	06b00513          	li	a0,107
  a0:	fea00fa3          	sb	a0,-1(zero) # ffffffff <_end+0xffffefff>
  a4:	00a00513          	li	a0,10
  a8:	fea00fa3          	sb	a0,-1(zero) # ffffffff <_end+0xffffefff>
  ac:	00100193          	li	gp,1
  b0:	30005073          	csrw	mstatus,0
  b4:	00000297          	auipc	t0,0x0
  b8:	01028293          	add	t0,t0,16 # c4 <test_20>
  bc:	34129073          	csrw	mepc,t0
  c0:	f1402573          	csrr	a0,mhartid

000000c4 <test_20>:
  c4:	01400193          	li	gp,20
  c8:	34001073          	csrw	mscratch,zero
  cc:	34002573          	csrr	a0,mscratch
  d0:	00000393          	li	t2,0
  d4:	1a751463          	bne	a0,t2,27c <fail>

000000d8 <test_21>:
  d8:	01500193          	li	gp,21
  dc:	34005573          	csrrw	a0,mscratch,0
  e0:	3407d573          	csrrw	a0,mscratch,15
  e4:	00000393          	li	t2,0
  e8:	18751a63          	bne	a0,t2,27c <fail>

000000ec <test_22>:
  ec:	01600193          	li	gp,22
  f0:	34086073          	csrs	mscratch,16
  f4:	34002573          	csrr	a0,mscratch
  f8:	01f00393          	li	t2,31
  fc:	18751063          	bne	a0,t2,27c <fail>
 100:	3401d073          	csrw	mscratch,3

00000104 <test_2>:
 104:	00200193          	li	gp,2
 108:	34002573          	csrr	a0,mscratch
 10c:	00300393          	li	t2,3
 110:	16751663          	bne	a0,t2,27c <fail>

00000114 <test_3>:
 114:	00300193          	li	gp,3
 118:	3400f5f3          	csrrc	a1,mscratch,1
 11c:	00300393          	li	t2,3
 120:	14759e63          	bne	a1,t2,27c <fail>

00000124 <test_4>:
 124:	00400193          	li	gp,4
 128:	34026673          	csrrs	a2,mscratch,4
 12c:	00200393          	li	t2,2
 130:	14761663          	bne	a2,t2,27c <fail>

00000134 <test_5>:
 134:	00500193          	li	gp,5
 138:	340156f3          	csrrw	a3,mscratch,2
 13c:	00600393          	li	t2,6
 140:	12769e63          	bne	a3,t2,27c <fail>

00000144 <test_6>:
 144:	00600193          	li	gp,6
 148:	0bad2537          	lui	a0,0xbad2
 14c:	dea50513          	add	a0,a0,-534 # bad1dea <_end+0xbad0dea>
 150:	340515f3          	csrrw	a1,mscratch,a0
 154:	00200393          	li	t2,2
 158:	12759263          	bne	a1,t2,27c <fail>

0000015c <test_7>:
 15c:	00700193          	li	gp,7
 160:	00002537          	lui	a0,0x2
 164:	dea50513          	add	a0,a0,-534 # 1dea <_end+0xdea>
 168:	340535f3          	csrrc	a1,mscratch,a0
 16c:	0bad23b7          	lui	t2,0xbad2
 170:	dea38393          	add	t2,t2,-534 # bad1dea <_end+0xbad0dea>
 174:	10759463          	bne	a1,t2,27c <fail>

00000178 <test_8>:
 178:	00800193          	li	gp,8
 17c:	0000c537          	lui	a0,0xc
 180:	eef50513          	add	a0,a0,-273 # beef <_end+0xaeef>
 184:	340525f3          	csrrs	a1,mscratch,a0
 188:	0bad03b7          	lui	t2,0xbad0
 18c:	0e759863          	bne	a1,t2,27c <fail>

00000190 <test_9>:
 190:	00900193          	li	gp,9
 194:	0bad2537          	lui	a0,0xbad2
 198:	dea50513          	add	a0,a0,-534 # bad1dea <_end+0xbad0dea>
 19c:	34051573          	csrrw	a0,mscratch,a0
 1a0:	0badc3b7          	lui	t2,0xbadc
 1a4:	eef38393          	add	t2,t2,-273 # badbeef <_end+0xbadaeef>
 1a8:	0c751a63          	bne	a0,t2,27c <fail>

000001ac <test_10>:
 1ac:	00a00193          	li	gp,10
 1b0:	00002537          	lui	a0,0x2
 1b4:	dea50513          	add	a0,a0,-534 # 1dea <_end+0xdea>
 1b8:	34053573          	csrrc	a0,mscratch,a0
 1bc:	0bad23b7          	lui	t2,0xbad2
 1c0:	dea38393          	add	t2,t2,-534 # bad1dea <_end+0xbad0dea>
 1c4:	0a751c63          	bne	a0,t2,27c <fail>

000001c8 <test_11>:
 1c8:	00b00193          	li	gp,11
 1cc:	0000c537          	lui	a0,0xc
 1d0:	eef50513          	add	a0,a0,-273 # beef <_end+0xaeef>
 1d4:	34052573          	csrrs	a0,mscratch,a0
 1d8:	0bad03b7          	lui	t2,0xbad0
 1dc:	0a751063          	bne	a0,t2,27c <fail>

000001e0 <test_12>:
 1e0:	00c00193          	li	gp,12
 1e4:	34002573          	csrr	a0,mscratch
 1e8:	0badc3b7          	lui	t2,0xbadc
 1ec:	eef38393          	add	t2,t2,-273 # badbeef <_end+0xbadaeef>
 1f0:	08751663          	bne	a0,t2,27c <fail>
 1f4:	30102573          	csrr	a0,misa
 1f8:	02057513          	and	a0,a0,32
 1fc:	00050c63          	beqz	a0,214 <test_13+0xc>
 200:	000065b7          	lui	a1,0x6
 204:	3005a073          	csrs	mstatus,a1

00000208 <test_13>:
 208:	00d00193          	li	gp,13
 20c:	00100393          	li	t2,1
 210:	06701663          	bne	zero,t2,27c <fail>
 214:	30102573          	csrr	a0,misa
 218:	01455513          	srl	a0,a0,0x14
 21c:	00157513          	and	a0,a0,1
 220:	02050a63          	beqz	a0,254 <finish>
 224:	3060d073          	csrw	mcounteren,1
 228:	30102573          	csrr	a0,misa
 22c:	01255513          	srl	a0,a0,0x12
 230:	00157513          	and	a0,a0,1
 234:	00050463          	beqz	a0,23c <test_13+0x34>
 238:	1060d073          	csrw	scounteren,1
 23c:	000022b7          	lui	t0,0x2
 240:	80028293          	add	t0,t0,-2048 # 1800 <_end+0x800>
 244:	3002b073          	csrc	mstatus,t0
 248:	00000297          	auipc	t0,0x0
 24c:	00c28293          	add	t0,t0,12 # 254 <finish>
 250:	34129073          	csrw	mepc,t0

00000254 <finish>:
 254:	0ff0000f          	fence
 258:	04f00513          	li	a0,79
 25c:	fea00fa3          	sb	a0,-1(zero) # ffffffff <_end+0xffffefff>
 260:	06b00513          	li	a0,107
 264:	fea00fa3          	sb	a0,-1(zero) # ffffffff <_end+0xffffefff>
 268:	00a00513          	li	a0,10
 26c:	fea00fa3          	sb	a0,-1(zero) # ffffffff <_end+0xffffefff>
 270:	00100193          	li	gp,1
 274:	c0001073          	unimp
 278:	02301263          	bne	zero,gp,29c <pass>

0000027c <fail>:
 27c:	0ff0000f          	fence
 280:	04e00513          	li	a0,78
 284:	fea00fa3          	sb	a0,-1(zero) # ffffffff <_end+0xffffefff>
 288:	06f00513          	li	a0,111
 28c:	fea00fa3          	sb	a0,-1(zero) # ffffffff <_end+0xffffefff>
 290:	00a00513          	li	a0,10
 294:	fea00fa3          	sb	a0,-1(zero) # ffffffff <_end+0xffffefff>
 298:	c0001073          	unimp

0000029c <pass>:
 29c:	0ff0000f          	fence
 2a0:	04f00513          	li	a0,79
 2a4:	fea00fa3          	sb	a0,-1(zero) # ffffffff <_end+0xffffefff>
 2a8:	06b00513          	li	a0,107
 2ac:	fea00fa3          	sb	a0,-1(zero) # ffffffff <_end+0xffffefff>
 2b0:	00a00513          	li	a0,10
 2b4:	fea00fa3          	sb	a0,-1(zero) # ffffffff <_end+0xffffefff>
 2b8:	00100193          	li	gp,1
 2bc:	c0001073          	unimp

000002c0 <mtvec_handler>:
 2c0:	00d00293          	li	t0,13
 2c4:	0051e663          	bltu	gp,t0,2d0 <mtvec_handler+0x10>
 2c8:	00f00293          	li	t0,15
 2cc:	0232fa63          	bgeu	t0,gp,300 <privileged>
 2d0:	342022f3          	csrr	t0,mcause
 2d4:	00800313          	li	t1,8
 2d8:	fa6292e3          	bne	t0,t1,27c <fail>
 2dc:	0ff0000f          	fence
 2e0:	04f00513          	li	a0,79
 2e4:	fea00fa3          	sb	a0,-1(zero) # ffffffff <_end+0xffffefff>
 2e8:	06b00513          	li	a0,107
 2ec:	fea00fa3          	sb	a0,-1(zero) # ffffffff <_end+0xffffefff>
 2f0:	00a00513          	li	a0,10
 2f4:	fea00fa3          	sb	a0,-1(zero) # ffffffff <_end+0xffffefff>
 2f8:	00100193          	li	gp,1
 2fc:	c0001073          	unimp

00000300 <privileged>:
 300:	342022f3          	csrr	t0,mcause
 304:	00200313          	li	t1,2
 308:	f6629ae3          	bne	t0,t1,27c <fail>
 30c:	341022f3          	csrr	t0,mepc
 310:	00428293          	add	t0,t0,4
 314:	34129073          	csrw	mepc,t0
 318:	30200073          	mret
 31c:	c0001073          	unimp
	...
