
scall.elf:     file format elf32-littleriscv


Disassembly of section .text.init:

00000000 <_start>:
   0:	0040006f          	j	4 <reset_vector>

00000004 <reset_vector>:
   4:	00000093          	li	ra,0
   8:	00000113          	li	sp,0
   c:	00000193          	li	gp,0
  10:	00000213          	li	tp,0
  14:	00000293          	li	t0,0
  18:	00000313          	li	t1,0
  1c:	00000393          	li	t2,0
  20:	00000413          	li	s0,0
  24:	00000493          	li	s1,0
  28:	00000513          	li	a0,0
  2c:	00000593          	li	a1,0
  30:	00000613          	li	a2,0
  34:	00000693          	li	a3,0
  38:	00000713          	li	a4,0
  3c:	00000793          	li	a5,0
  40:	00000813          	li	a6,0
  44:	00000893          	li	a7,0
  48:	00000913          	li	s2,0
  4c:	00000993          	li	s3,0
  50:	00000a13          	li	s4,0
  54:	00000a93          	li	s5,0
  58:	00000b13          	li	s6,0
  5c:	00000b93          	li	s7,0
  60:	00000c13          	li	s8,0
  64:	00000c93          	li	s9,0
  68:	00000d13          	li	s10,0
  6c:	00000d93          	li	s11,0
  70:	00000e13          	li	t3,0
  74:	00000e93          	li	t4,0
  78:	00000f13          	li	t5,0
  7c:	00000f93          	li	t6,0
  80:	00000193          	li	gp,0
  84:	00100513          	li	a0,1
  88:	01f51513          	sll	a0,a0,0x1f
  8c:	02054263          	bltz	a0,b0 <reset_vector+0xac>
  90:	0ff0000f          	fence
  94:	04f00513          	li	a0,79
  98:	fea00fa3          	sb	a0,-1(zero) # ffffffff <_end+0xffffefff>
  9c:	06b00513          	li	a0,107
  a0:	fea00fa3          	sb	a0,-1(zero) # ffffffff <_end+0xffffefff>
  a4:	00a00513          	li	a0,10
  a8:	fea00fa3          	sb	a0,-1(zero) # ffffffff <_end+0xffffefff>
  ac:	00100193          	li	gp,1
  b0:	30005073          	csrw	mstatus,0
  b4:	00000297          	auipc	t0,0x0
  b8:	01028293          	add	t0,t0,16 # c4 <reset_vector+0xc0>
  bc:	34129073          	csrw	mepc,t0
  c0:	f1402573          	csrr	a0,mhartid
  c4:	00000297          	auipc	t0,0x0
  c8:	09c28293          	add	t0,t0,156 # 160 <mtvec_handler>
  cc:	30529073          	csrw	mtvec,t0
  d0:	00200193          	li	gp,2
  d4:	00b00313          	li	t1,11
  d8:	000022b7          	lui	t0,0x2
  dc:	80028293          	add	t0,t0,-2048 # 1800 <_end+0x800>
  e0:	3002b073          	csrc	mstatus,t0
  e4:	300023f3          	csrr	t2,mstatus
  e8:	0072f2b3          	and	t0,t0,t2
  ec:	00028463          	beqz	t0,f4 <reset_vector+0xf0>
  f0:	00b00313          	li	t1,11
  f4:	000022b7          	lui	t0,0x2
  f8:	80028293          	add	t0,t0,-2048 # 1800 <_end+0x800>
  fc:	3002b073          	csrc	mstatus,t0
 100:	00100193          	li	gp,1

00000104 <do_scall>:
 104:	00000297          	auipc	t0,0x0
 108:	00028293          	mv	t0,t0
 10c:	34129073          	csrw	mepc,t0
 110:	00000073          	ecall
 114:	0080006f          	j	11c <fail>
 118:	02301263          	bne	zero,gp,13c <pass>

0000011c <fail>:
 11c:	0ff0000f          	fence
 120:	04e00513          	li	a0,78
 124:	fea00fa3          	sb	a0,-1(zero) # ffffffff <_end+0xffffefff>
 128:	06f00513          	li	a0,111
 12c:	fea00fa3          	sb	a0,-1(zero) # ffffffff <_end+0xffffefff>
 130:	00a00513          	li	a0,10
 134:	fea00fa3          	sb	a0,-1(zero) # ffffffff <_end+0xffffefff>
 138:	c0001073          	unimp

0000013c <pass>:
 13c:	0ff0000f          	fence
 140:	04f00513          	li	a0,79
 144:	fea00fa3          	sb	a0,-1(zero) # ffffffff <_end+0xffffefff>
 148:	06b00513          	li	a0,107
 14c:	fea00fa3          	sb	a0,-1(zero) # ffffffff <_end+0xffffefff>
 150:	00a00513          	li	a0,10
 154:	fea00fa3          	sb	a0,-1(zero) # ffffffff <_end+0xffffefff>
 158:	00100193          	li	gp,1
 15c:	c0001073          	unimp

00000160 <mtvec_handler>:
 160:	342022f3          	csrr	t0,mcause
 164:	305023f3          	csrr	t2,mtvec
 168:	0023f393          	and	t2,t2,2
 16c:	00038463          	beqz	t2,174 <skip_mask>
 170:	0ff2f293          	zext.b	t0,t0

00000174 <skip_mask>:
 174:	fa6294e3          	bne	t0,t1,11c <fail>
 178:	00000397          	auipc	t2,0x0
 17c:	f8c38393          	add	t2,t2,-116 # 104 <do_scall>
 180:	341022f3          	csrr	t0,mepc
 184:	f8729ce3          	bne	t0,t2,11c <fail>
 188:	fb5ff06f          	j	13c <pass>
 18c:	c0001073          	unimp
	...
