
crc32.elf:     file format elf32-littleriscv


Disassembly of section .text:

00000000 <main>:
   0:	1101                	add	sp,sp,-32
   2:	ce06                	sw	ra,28(sp)
   4:	cc22                	sw	s0,24(sp)
   6:	1000                	add	s0,sp,32
   8:	2a29                	jal	122 <benchmark>
   a:	87aa                	mv	a5,a0
   c:	853e                	mv	a0,a5
   e:	22f9                	jal	1dc <verify_benchmark>
  10:	fea42623          	sw	a0,-20(s0)
  14:	60402783          	lw	a5,1540(zero) # 604 <charBuf>
  18:	fec42703          	lw	a4,-20(s0)
  1c:	0ff77713          	zext.b	a4,a4
  20:	00e78023          	sb	a4,0(a5)
  24:	fec42783          	lw	a5,-20(s0)
  28:	4087d713          	sra	a4,a5,0x8
  2c:	60402783          	lw	a5,1540(zero) # 604 <charBuf>
  30:	0ff77713          	zext.b	a4,a4
  34:	00e78023          	sb	a4,0(a5)
  38:	fec42783          	lw	a5,-20(s0)
  3c:	4107d713          	sra	a4,a5,0x10
  40:	60402783          	lw	a5,1540(zero) # 604 <charBuf>
  44:	0ff77713          	zext.b	a4,a4
  48:	00e78023          	sb	a4,0(a5)
  4c:	fec42783          	lw	a5,-20(s0)
  50:	4187d713          	sra	a4,a5,0x18
  54:	60402783          	lw	a5,1540(zero) # 604 <charBuf>
  58:	0ff77713          	zext.b	a4,a4
  5c:	00e78023          	sb	a4,0(a5)
  60:	60402783          	lw	a5,1540(zero) # 604 <charBuf>
  64:	4729                	li	a4,10
  66:	00e78023          	sb	a4,0(a5)
  6a:	0000                	unimp
  6c:	4781                	li	a5,0
  6e:	853e                	mv	a0,a5
  70:	40f2                	lw	ra,28(sp)
  72:	4462                	lw	s0,24(sp)
  74:	6105                	add	sp,sp,32
  76:	8082                	ret

00000078 <rand>:
  78:	1141                	add	sp,sp,-16
  7a:	c622                	sw	s0,12(sp)
  7c:	0800                	add	s0,sp,16
  7e:	60802703          	lw	a4,1544(zero) # 608 <seed>
  82:	41c657b7          	lui	a5,0x41c65
  86:	e6d78793          	add	a5,a5,-403 # 41c64e6d <__global_pointer$+0x41c64069>
  8a:	02f70733          	mul	a4,a4,a5
  8e:	678d                	lui	a5,0x3
  90:	03978793          	add	a5,a5,57 # 3039 <__global_pointer$+0x2235>
  94:	973e                	add	a4,a4,a5
  96:	800007b7          	lui	a5,0x80000
  9a:	17fd                	add	a5,a5,-1 # 7fffffff <__global_pointer$+0x7ffff1fb>
  9c:	8f7d                	and	a4,a4,a5
  9e:	60e02423          	sw	a4,1544(zero) # 608 <seed>
  a2:	60802783          	lw	a5,1544(zero) # 608 <seed>
  a6:	87c1                	sra	a5,a5,0x10
  a8:	853e                	mv	a0,a5
  aa:	4432                	lw	s0,12(sp)
  ac:	0141                	add	sp,sp,16
  ae:	8082                	ret

000000b0 <srand>:
  b0:	1101                	add	sp,sp,-32
  b2:	ce22                	sw	s0,28(sp)
  b4:	1000                	add	s0,sp,32
  b6:	fea42623          	sw	a0,-20(s0)
  ba:	fec42703          	lw	a4,-20(s0)
  be:	60e02423          	sw	a4,1544(zero) # 608 <seed>
  c2:	0001                	nop
  c4:	4472                	lw	s0,28(sp)
  c6:	6105                	add	sp,sp,32
  c8:	8082                	ret

000000ca <crc32pseudo>:
  ca:	1101                	add	sp,sp,-32
  cc:	ce06                	sw	ra,28(sp)
  ce:	cc22                	sw	s0,24(sp)
  d0:	ca26                	sw	s1,20(sp)
  d2:	1000                	add	s0,sp,32
  d4:	54fd                	li	s1,-1
  d6:	fe042623          	sw	zero,-20(s0)
  da:	a035                	j	106 <crc32pseudo+0x3c>
  dc:	3f71                	jal	78 <rand>
  de:	87aa                	mv	a5,a0
  e0:	0ff7f793          	zext.b	a5,a5
  e4:	8fa5                	xor	a5,a5,s1
  e6:	0ff7f793          	zext.b	a5,a5
  ea:	20400713          	li	a4,516
  ee:	078a                	sll	a5,a5,0x2
  f0:	97ba                	add	a5,a5,a4
  f2:	4398                	lw	a4,0(a5)
  f4:	0084d793          	srl	a5,s1,0x8
  f8:	00f744b3          	xor	s1,a4,a5
  fc:	fec42783          	lw	a5,-20(s0)
 100:	0785                	add	a5,a5,1
 102:	fef42623          	sw	a5,-20(s0)
 106:	fec42703          	lw	a4,-20(s0)
 10a:	3ff00793          	li	a5,1023
 10e:	fce7d7e3          	bge	a5,a4,dc <crc32pseudo+0x12>
 112:	fff4c793          	not	a5,s1
 116:	853e                	mv	a0,a5
 118:	40f2                	lw	ra,28(sp)
 11a:	4462                	lw	s0,24(sp)
 11c:	44d2                	lw	s1,20(sp)
 11e:	6105                	add	sp,sp,32
 120:	8082                	ret

00000122 <benchmark>:
 122:	1101                	add	sp,sp,-32
 124:	ce06                	sw	ra,28(sp)
 126:	cc22                	sw	s0,24(sp)
 128:	1000                	add	s0,sp,32
 12a:	4505                	li	a0,1
 12c:	20ad                	jal	196 <benchmark_body>
 12e:	fea42623          	sw	a0,-20(s0)
 132:	60402783          	lw	a5,1540(zero) # 604 <charBuf>
 136:	fec42703          	lw	a4,-20(s0)
 13a:	0ff77713          	zext.b	a4,a4
 13e:	00e78023          	sb	a4,0(a5)
 142:	fec42783          	lw	a5,-20(s0)
 146:	4087d713          	sra	a4,a5,0x8
 14a:	60402783          	lw	a5,1540(zero) # 604 <charBuf>
 14e:	0ff77713          	zext.b	a4,a4
 152:	00e78023          	sb	a4,0(a5)
 156:	fec42783          	lw	a5,-20(s0)
 15a:	4107d713          	sra	a4,a5,0x10
 15e:	60402783          	lw	a5,1540(zero) # 604 <charBuf>
 162:	0ff77713          	zext.b	a4,a4
 166:	00e78023          	sb	a4,0(a5)
 16a:	fec42783          	lw	a5,-20(s0)
 16e:	4187d713          	sra	a4,a5,0x18
 172:	60402783          	lw	a5,1540(zero) # 604 <charBuf>
 176:	0ff77713          	zext.b	a4,a4
 17a:	00e78023          	sb	a4,0(a5)
 17e:	60402783          	lw	a5,1540(zero) # 604 <charBuf>
 182:	4729                	li	a4,10
 184:	00e78023          	sb	a4,0(a5)
 188:	fec42783          	lw	a5,-20(s0)
 18c:	853e                	mv	a0,a5
 18e:	40f2                	lw	ra,28(sp)
 190:	4462                	lw	s0,24(sp)
 192:	6105                	add	sp,sp,32
 194:	8082                	ret

00000196 <benchmark_body>:
 196:	7179                	add	sp,sp,-48
 198:	d606                	sw	ra,44(sp)
 19a:	d422                	sw	s0,40(sp)
 19c:	1800                	add	s0,sp,48
 19e:	fca42e23          	sw	a0,-36(s0)
 1a2:	fe042623          	sw	zero,-20(s0)
 1a6:	a819                	j	1bc <benchmark_body+0x26>
 1a8:	4501                	li	a0,0
 1aa:	3719                	jal	b0 <srand>
 1ac:	3f39                	jal	ca <crc32pseudo>
 1ae:	fea42423          	sw	a0,-24(s0)
 1b2:	fec42783          	lw	a5,-20(s0)
 1b6:	0785                	add	a5,a5,1
 1b8:	fef42623          	sw	a5,-20(s0)
 1bc:	fec42703          	lw	a4,-20(s0)
 1c0:	fdc42783          	lw	a5,-36(s0)
 1c4:	fef742e3          	blt	a4,a5,1a8 <benchmark_body+0x12>
 1c8:	fe842703          	lw	a4,-24(s0)
 1cc:	67a1                	lui	a5,0x8
 1ce:	17fd                	add	a5,a5,-1 # 7fff <__global_pointer$+0x71fb>
 1d0:	8ff9                	and	a5,a5,a4
 1d2:	853e                	mv	a0,a5
 1d4:	50b2                	lw	ra,44(sp)
 1d6:	5422                	lw	s0,40(sp)
 1d8:	6145                	add	sp,sp,48
 1da:	8082                	ret

000001dc <verify_benchmark>:
 1dc:	1101                	add	sp,sp,-32
 1de:	ce22                	sw	s0,28(sp)
 1e0:	1000                	add	s0,sp,32
 1e2:	fea42623          	sw	a0,-20(s0)
 1e6:	fec42703          	lw	a4,-20(s0)
 1ea:	77f5                	lui	a5,0xffffd
 1ec:	35778793          	add	a5,a5,855 # ffffd357 <__global_pointer$+0xffffc553>
 1f0:	97ba                	add	a5,a5,a4
 1f2:	0017b793          	seqz	a5,a5
 1f6:	0ff7f793          	zext.b	a5,a5
 1fa:	853e                	mv	a0,a5
 1fc:	4472                	lw	s0,28(sp)
 1fe:	6105                	add	sp,sp,32
 200:	8082                	ret
