
crc32.elf:     file format elf32-littleriscv


Disassembly of section .text:

00000000 <_start>:
   0:	00002137          	lui	sp,0x2
   4:	100000ef          	jal	104 <main>
   8:	c0001073          	unimp

0000000c <rand>:
   c:	6705                	lui	a4,0x1
   e:	00472503          	lw	a0,4(a4) # 1004 <seed>
  12:	41c657b7          	lui	a5,0x41c65
  16:	e6d78793          	add	a5,a5,-403 # 41c64e6d <seed+0x41c63e69>
  1a:	02f50533          	mul	a0,a0,a5
  1e:	678d                	lui	a5,0x3
  20:	03978793          	add	a5,a5,57 # 3039 <seed+0x2035>
  24:	953e                	add	a0,a0,a5
  26:	49f51513          	bclr	a0,a0,0x1f
  2a:	00a72223          	sw	a0,4(a4)
  2e:	8141                	srl	a0,a0,0x10
  30:	8082                	ret

00000032 <srand>:
  32:	6785                	lui	a5,0x1
  34:	00a7a223          	sw	a0,4(a5) # 1004 <seed>
  38:	8082                	ret

0000003a <crc32pseudo>:
  3a:	6305                	lui	t1,0x1
  3c:	00432783          	lw	a5,4(t1) # 1004 <seed>
  40:	41c65837          	lui	a6,0x41c65
  44:	658d                	lui	a1,0x3
  46:	40000713          	li	a4,1024
  4a:	557d                	li	a0,-1
  4c:	14c00893          	li	a7,332
  50:	e6d80813          	add	a6,a6,-403 # 41c64e6d <seed+0x41c63e69>
  54:	03958593          	add	a1,a1,57 # 3039 <seed+0x2035>
  58:	030787b3          	mul	a5,a5,a6
  5c:	00855693          	srl	a3,a0,0x8
  60:	177d                	add	a4,a4,-1
  62:	97ae                	add	a5,a5,a1
  64:	49f79793          	bclr	a5,a5,0x1f
  68:	4107d613          	sra	a2,a5,0x10
  6c:	8d31                	xor	a0,a0,a2
  6e:	0ff57513          	zext.b	a0,a0
  72:	21154533          	sh2add	a0,a0,a7
  76:	4108                	lw	a0,0(a0)
  78:	8d35                	xor	a0,a0,a3
  7a:	ff79                	bnez	a4,58 <crc32pseudo+0x1e>
  7c:	00f32223          	sw	a5,4(t1)
  80:	fff54513          	not	a0,a0
  84:	8082                	ret

00000086 <benchmark_body.constprop.0>:
  86:	1141                	add	sp,sp,-16 # 1ff0 <seed+0xfec>
  88:	c422                	sw	s0,8(sp)
  8a:	6405                	lui	s0,0x1
  8c:	c606                	sw	ra,12(sp)
  8e:	00042223          	sw	zero,4(s0) # 1004 <seed>
  92:	3765                	jal	3a <crc32pseudo>
  94:	00042223          	sw	zero,4(s0)
  98:	374d                	jal	3a <crc32pseudo>
  9a:	40b2                	lw	ra,12(sp)
  9c:	4422                	lw	s0,8(sp)
  9e:	0546                	sll	a0,a0,0x11
  a0:	8145                	srl	a0,a0,0x11
  a2:	0141                	add	sp,sp,16
  a4:	8082                	ret

000000a6 <benchmark>:
  a6:	1141                	add	sp,sp,-16
  a8:	c606                	sw	ra,12(sp)
  aa:	3ff1                	jal	86 <benchmark_body.constprop.0>
  ac:	6705                	lui	a4,0x1
  ae:	00072683          	lw	a3,0(a4) # 1000 <charBuf>
  b2:	0ff57613          	zext.b	a2,a0
  b6:	01855793          	srl	a5,a0,0x18
  ba:	00c68023          	sb	a2,0(a3)
  be:	00072603          	lw	a2,0(a4)
  c2:	40855693          	sra	a3,a0,0x8
  c6:	0ff6f693          	zext.b	a3,a3
  ca:	00d60023          	sb	a3,0(a2)
  ce:	00072603          	lw	a2,0(a4)
  d2:	41055693          	sra	a3,a0,0x10
  d6:	0ff6f693          	zext.b	a3,a3
  da:	00d60023          	sb	a3,0(a2)
  de:	00072683          	lw	a3,0(a4)
  e2:	00f68023          	sb	a5,0(a3)
  e6:	00072783          	lw	a5,0(a4)
  ea:	4729                	li	a4,10
  ec:	00e78023          	sb	a4,0(a5)
  f0:	40b2                	lw	ra,12(sp)
  f2:	0141                	add	sp,sp,16
  f4:	8082                	ret

000000f6 <verify_benchmark>:
  f6:	77f5                	lui	a5,0xffffd
  f8:	35778793          	add	a5,a5,855 # ffffd357 <seed+0xffffc353>
  fc:	953e                	add	a0,a0,a5
  fe:	00153513          	seqz	a0,a0
 102:	8082                	ret

Disassembly of section .text.startup:

00000104 <main>:
 104:	1141                	add	sp,sp,-16
 106:	c606                	sw	ra,12(sp)
 108:	3f79                	jal	a6 <benchmark>
 10a:	6785                	lui	a5,0x1
 10c:	7775                	lui	a4,0xffffd
 10e:	0007a683          	lw	a3,0(a5) # 1000 <charBuf>
 112:	35770713          	add	a4,a4,855 # ffffd357 <seed+0xffffc353>
 116:	953a                	add	a0,a0,a4
 118:	00153513          	seqz	a0,a0
 11c:	00a68023          	sb	a0,0(a3)
 120:	0007a703          	lw	a4,0(a5)
 124:	00070023          	sb	zero,0(a4)
 128:	0007a703          	lw	a4,0(a5)
 12c:	00070023          	sb	zero,0(a4)
 130:	0007a703          	lw	a4,0(a5)
 134:	00070023          	sb	zero,0(a4)
 138:	0007a783          	lw	a5,0(a5)
 13c:	4729                	li	a4,10
 13e:	00e78023          	sb	a4,0(a5)
 142:	0000                	unimp
 144:	40b2                	lw	ra,12(sp)
 146:	4501                	li	a0,0
 148:	0141                	add	sp,sp,16
 14a:	8082                	ret
